
kernel_optimization/kernel.elf:     file format elf32-littlearm


Disassembly of section .text:

00008000 <__start>:
    8000:	e10f0000 	mrs	r0, CPSR
    8004:	e321f0d2 	msr	CPSR_c, #210	; 0xd2
    8008:	e59fd034 	ldr	sp, [pc, #52]	; 8044 <hang+0x8>
    800c:	e121f000 	msr	CPSR_c, r0
    8010:	e59fd030 	ldr	sp, [pc, #48]	; 8048 <hang+0xc>
    8014:	e59f0030 	ldr	r0, [pc, #48]	; 804c <hang+0x10>
    8018:	e59f1030 	ldr	r1, [pc, #48]	; 8050 <hang+0x14>
    801c:	e3a02000 	mov	r2, #0
    8020:	e3a03000 	mov	r3, #0
    8024:	e3a04000 	mov	r4, #0
    8028:	e3a05000 	mov	r5, #0

0000802c <bss_loop>:
    802c:	e8a0003c 	stmia	r0!, {r2, r3, r4, r5}
    8030:	e1500001 	cmp	r0, r1
    8034:	3afffffc 	bcc	802c <bss_loop>
    8038:	eb0000cd 	bl	8374 <kernel_main>

0000803c <hang>:
    803c:	e320f003 	wfi
    8040:	eafffffd 	b	803c <hang>
    8044:	0012e000 	andseq	lr, r2, r0
    8048:	0011d000 	andseq	sp, r1, r0
    804c:	0000c000 	andeq	ip, r0, r0
    8050:	0000d000 	andeq	sp, r0, r0

00008054 <gpio_config>:
    8054:	e52db004 	push	{fp}		; (str fp, [sp, #-4]!)
    8058:	e28db000 	add	fp, sp, #0
    805c:	e24dd01c 	sub	sp, sp, #28
    8060:	e1a03000 	mov	r3, r0
    8064:	e1a02001 	mov	r2, r1
    8068:	e54b3015 	strb	r3, [fp, #-21]	; 0xffffffeb
    806c:	e1a03002 	mov	r3, r2
    8070:	e54b3016 	strb	r3, [fp, #-22]	; 0xffffffea
    8074:	e55b3015 	ldrb	r3, [fp, #-21]	; 0xffffffeb
    8078:	e3530035 	cmp	r3, #53	; 0x35
    807c:	8a000002 	bhi	808c <gpio_config+0x38>
    8080:	e55b3016 	ldrb	r3, [fp, #-22]	; 0xffffffea
    8084:	e3530007 	cmp	r3, #7
    8088:	9a000000 	bls	8090 <gpio_config+0x3c>
    808c:	ea000035 	b	8168 <gpio_config+0x114>
    8090:	e55b2015 	ldrb	r2, [fp, #-21]	; 0xffffffeb
    8094:	e30c3ccd 	movw	r3, #52429	; 0xcccd
    8098:	e34c3ccc 	movt	r3, #52428	; 0xcccc
    809c:	e0832392 	umull	r2, r3, r2, r3
    80a0:	e1a031a3 	lsr	r3, r3, #3
    80a4:	e6ef3073 	uxtb	r3, r3
    80a8:	e50b3008 	str	r3, [fp, #-8]
    80ac:	e30b3000 	movw	r3, #45056	; 0xb000
    80b0:	e3403000 	movt	r3, #0
    80b4:	e5932000 	ldr	r2, [r3]
    80b8:	e51b3008 	ldr	r3, [fp, #-8]
    80bc:	e1a03103 	lsl	r3, r3, #2
    80c0:	e0823003 	add	r3, r2, r3
    80c4:	e5933000 	ldr	r3, [r3]
    80c8:	e50b300c 	str	r3, [fp, #-12]
    80cc:	e55b1015 	ldrb	r1, [fp, #-21]	; 0xffffffeb
    80d0:	e30c3ccd 	movw	r3, #52429	; 0xcccd
    80d4:	e34c3ccc 	movt	r3, #52428	; 0xcccc
    80d8:	e0832391 	umull	r2, r3, r1, r3
    80dc:	e1a021a3 	lsr	r2, r3, #3
    80e0:	e1a03002 	mov	r3, r2
    80e4:	e1a03103 	lsl	r3, r3, #2
    80e8:	e0833002 	add	r3, r3, r2
    80ec:	e1a03083 	lsl	r3, r3, #1
    80f0:	e0633001 	rsb	r3, r3, r1
    80f4:	e6ef3073 	uxtb	r3, r3
    80f8:	e1a02003 	mov	r2, r3
    80fc:	e1a03002 	mov	r3, r2
    8100:	e1a03083 	lsl	r3, r3, #1
    8104:	e0833002 	add	r3, r3, r2
    8108:	e50b3010 	str	r3, [fp, #-16]
    810c:	e51b3010 	ldr	r3, [fp, #-16]
    8110:	e3a02007 	mov	r2, #7
    8114:	e1a03312 	lsl	r3, r2, r3
    8118:	e1e03003 	mvn	r3, r3
    811c:	e1a02003 	mov	r2, r3
    8120:	e51b300c 	ldr	r3, [fp, #-12]
    8124:	e0033002 	and	r3, r3, r2
    8128:	e50b300c 	str	r3, [fp, #-12]
    812c:	e55b2016 	ldrb	r2, [fp, #-22]	; 0xffffffea
    8130:	e51b3010 	ldr	r3, [fp, #-16]
    8134:	e1a03312 	lsl	r3, r2, r3
    8138:	e1a02003 	mov	r2, r3
    813c:	e51b300c 	ldr	r3, [fp, #-12]
    8140:	e1833002 	orr	r3, r3, r2
    8144:	e50b300c 	str	r3, [fp, #-12]
    8148:	e30b3000 	movw	r3, #45056	; 0xb000
    814c:	e3403000 	movt	r3, #0
    8150:	e5932000 	ldr	r2, [r3]
    8154:	e51b3008 	ldr	r3, [fp, #-8]
    8158:	e1a03103 	lsl	r3, r3, #2
    815c:	e0823003 	add	r3, r2, r3
    8160:	e51b200c 	ldr	r2, [fp, #-12]
    8164:	e5832000 	str	r2, [r3]
    8168:	e24bd000 	sub	sp, fp, #0
    816c:	e49db004 	pop	{fp}		; (ldr fp, [sp], #4)
    8170:	e12fff1e 	bx	lr

00008174 <gpio_set>:
    8174:	e52db004 	push	{fp}		; (str fp, [sp, #-4]!)
    8178:	e28db000 	add	fp, sp, #0
    817c:	e24dd00c 	sub	sp, sp, #12
    8180:	e1a03000 	mov	r3, r0
    8184:	e54b3005 	strb	r3, [fp, #-5]
    8188:	e55b3005 	ldrb	r3, [fp, #-5]
    818c:	e3530035 	cmp	r3, #53	; 0x35
    8190:	9a000000 	bls	8198 <gpio_set+0x24>
    8194:	ea000014 	b	81ec <gpio_set+0x78>
    8198:	e55b3005 	ldrb	r3, [fp, #-5]
    819c:	e353001f 	cmp	r3, #31
    81a0:	9a000009 	bls	81cc <gpio_set+0x58>
    81a4:	e30b3000 	movw	r3, #45056	; 0xb000
    81a8:	e3403000 	movt	r3, #0
    81ac:	e5933000 	ldr	r3, [r3]
    81b0:	e2833020 	add	r3, r3, #32
    81b4:	e55b2005 	ldrb	r2, [fp, #-5]
    81b8:	e2422020 	sub	r2, r2, #32
    81bc:	e3a01001 	mov	r1, #1
    81c0:	e1a02211 	lsl	r2, r1, r2
    81c4:	e5832000 	str	r2, [r3]
    81c8:	ea000007 	b	81ec <gpio_set+0x78>
    81cc:	e30b3000 	movw	r3, #45056	; 0xb000
    81d0:	e3403000 	movt	r3, #0
    81d4:	e5933000 	ldr	r3, [r3]
    81d8:	e283301c 	add	r3, r3, #28
    81dc:	e55b2005 	ldrb	r2, [fp, #-5]
    81e0:	e3a01001 	mov	r1, #1
    81e4:	e1a02211 	lsl	r2, r1, r2
    81e8:	e5832000 	str	r2, [r3]
    81ec:	e24bd000 	sub	sp, fp, #0
    81f0:	e49db004 	pop	{fp}		; (ldr fp, [sp], #4)
    81f4:	e12fff1e 	bx	lr

000081f8 <gpio_clr>:
    81f8:	e52db004 	push	{fp}		; (str fp, [sp, #-4]!)
    81fc:	e28db000 	add	fp, sp, #0
    8200:	e24dd00c 	sub	sp, sp, #12
    8204:	e1a03000 	mov	r3, r0
    8208:	e54b3005 	strb	r3, [fp, #-5]
    820c:	e55b3005 	ldrb	r3, [fp, #-5]
    8210:	e3530035 	cmp	r3, #53	; 0x35
    8214:	9a000000 	bls	821c <gpio_clr+0x24>
    8218:	ea000014 	b	8270 <gpio_clr+0x78>
    821c:	e55b3005 	ldrb	r3, [fp, #-5]
    8220:	e353001f 	cmp	r3, #31
    8224:	9a000009 	bls	8250 <gpio_clr+0x58>
    8228:	e30b3000 	movw	r3, #45056	; 0xb000
    822c:	e3403000 	movt	r3, #0
    8230:	e5933000 	ldr	r3, [r3]
    8234:	e283302c 	add	r3, r3, #44	; 0x2c
    8238:	e55b2005 	ldrb	r2, [fp, #-5]
    823c:	e2422020 	sub	r2, r2, #32
    8240:	e3a01001 	mov	r1, #1
    8244:	e1a02211 	lsl	r2, r1, r2
    8248:	e5832000 	str	r2, [r3]
    824c:	ea000007 	b	8270 <gpio_clr+0x78>
    8250:	e30b3000 	movw	r3, #45056	; 0xb000
    8254:	e3403000 	movt	r3, #0
    8258:	e5933000 	ldr	r3, [r3]
    825c:	e2833028 	add	r3, r3, #40	; 0x28
    8260:	e55b2005 	ldrb	r2, [fp, #-5]
    8264:	e3a01001 	mov	r1, #1
    8268:	e1a02211 	lsl	r2, r1, r2
    826c:	e5832000 	str	r2, [r3]
    8270:	e24bd000 	sub	sp, fp, #0
    8274:	e49db004 	pop	{fp}		; (ldr fp, [sp], #4)
    8278:	e12fff1e 	bx	lr

0000827c <gpio_set_pull>:
    827c:	e92d4800 	push	{fp, lr}
    8280:	e28db004 	add	fp, sp, #4
    8284:	e24dd008 	sub	sp, sp, #8
    8288:	e1a03000 	mov	r3, r0
    828c:	e1a02001 	mov	r2, r1
    8290:	e54b3005 	strb	r3, [fp, #-5]
    8294:	e1a03002 	mov	r3, r2
    8298:	e54b3006 	strb	r3, [fp, #-6]
    829c:	e55b3005 	ldrb	r3, [fp, #-5]
    82a0:	e3530035 	cmp	r3, #53	; 0x35
    82a4:	8a000002 	bhi	82b4 <gpio_set_pull+0x38>
    82a8:	e55b3006 	ldrb	r3, [fp, #-6]
    82ac:	e3530002 	cmp	r3, #2
    82b0:	9a000000 	bls	82b8 <gpio_set_pull+0x3c>
    82b4:	ea00002c 	b	836c <gpio_set_pull+0xf0>
    82b8:	e30b3000 	movw	r3, #45056	; 0xb000
    82bc:	e3403000 	movt	r3, #0
    82c0:	e5933000 	ldr	r3, [r3]
    82c4:	e2833094 	add	r3, r3, #148	; 0x94
    82c8:	e55b2006 	ldrb	r2, [fp, #-6]
    82cc:	e5832000 	str	r2, [r3]
    82d0:	e3a00096 	mov	r0, #150	; 0x96
    82d4:	eb0001f4 	bl	8aac <delay_cycles>
    82d8:	e55b3005 	ldrb	r3, [fp, #-5]
    82dc:	e353001f 	cmp	r3, #31
    82e0:	9a000011 	bls	832c <gpio_set_pull+0xb0>
    82e4:	e30b3000 	movw	r3, #45056	; 0xb000
    82e8:	e3403000 	movt	r3, #0
    82ec:	e5933000 	ldr	r3, [r3]
    82f0:	e283309c 	add	r3, r3, #156	; 0x9c
    82f4:	e55b2005 	ldrb	r2, [fp, #-5]
    82f8:	e2422020 	sub	r2, r2, #32
    82fc:	e3a01001 	mov	r1, #1
    8300:	e1a02211 	lsl	r2, r1, r2
    8304:	e5832000 	str	r2, [r3]
    8308:	e3a00096 	mov	r0, #150	; 0x96
    830c:	eb0001e6 	bl	8aac <delay_cycles>
    8310:	e30b3000 	movw	r3, #45056	; 0xb000
    8314:	e3403000 	movt	r3, #0
    8318:	e5933000 	ldr	r3, [r3]
    831c:	e283309c 	add	r3, r3, #156	; 0x9c
    8320:	e3a02000 	mov	r2, #0
    8324:	e5832000 	str	r2, [r3]
    8328:	ea00000f 	b	836c <gpio_set_pull+0xf0>
    832c:	e30b3000 	movw	r3, #45056	; 0xb000
    8330:	e3403000 	movt	r3, #0
    8334:	e5933000 	ldr	r3, [r3]
    8338:	e2833098 	add	r3, r3, #152	; 0x98
    833c:	e55b2005 	ldrb	r2, [fp, #-5]
    8340:	e3a01001 	mov	r1, #1
    8344:	e1a02211 	lsl	r2, r1, r2
    8348:	e5832000 	str	r2, [r3]
    834c:	e3a00096 	mov	r0, #150	; 0x96
    8350:	eb0001d5 	bl	8aac <delay_cycles>
    8354:	e30b3000 	movw	r3, #45056	; 0xb000
    8358:	e3403000 	movt	r3, #0
    835c:	e5933000 	ldr	r3, [r3]
    8360:	e2833098 	add	r3, r3, #152	; 0x98
    8364:	e3a02000 	mov	r2, #0
    8368:	e5832000 	str	r2, [r3]
    836c:	e24bd004 	sub	sp, fp, #4
    8370:	e8bd8800 	pop	{fp, pc}

00008374 <kernel_main>:
    8374:	e92d4800 	push	{fp, lr}
    8378:	e28db004 	add	fp, sp, #4
    837c:	e24dd010 	sub	sp, sp, #16
    8380:	e3a03001 	mov	r3, #1
    8384:	e50b300c 	str	r3, [fp, #-12]
    8388:	eb000131 	bl	8854 <uart_init>
    838c:	e3a03000 	mov	r3, #0
    8390:	e50b3008 	str	r3, [fp, #-8]
    8394:	ea00000c 	b	83cc <kernel_main+0x58>
    8398:	e30c37d0 	movw	r3, #51152	; 0xc7d0
    839c:	e3403000 	movt	r3, #0
    83a0:	e51b2008 	ldr	r2, [fp, #-8]
    83a4:	e51b1008 	ldr	r1, [fp, #-8]
    83a8:	e7831102 	str	r1, [r3, r2, lsl #2]
    83ac:	e30c3000 	movw	r3, #49152	; 0xc000
    83b0:	e3403000 	movt	r3, #0
    83b4:	e51b2008 	ldr	r2, [fp, #-8]
    83b8:	e51b1008 	ldr	r1, [fp, #-8]
    83bc:	e7831102 	str	r1, [r3, r2, lsl #2]
    83c0:	e51b3008 	ldr	r3, [fp, #-8]
    83c4:	e2833001 	add	r3, r3, #1
    83c8:	e50b3008 	str	r3, [fp, #-8]
    83cc:	e51b3008 	ldr	r3, [fp, #-8]
    83d0:	e3530f7d 	cmp	r3, #500	; 0x1f4
    83d4:	baffffef 	blt	8398 <kernel_main+0x24>
    83d8:	e30a0000 	movw	r0, #40960	; 0xa000
    83dc:	e3400000 	movt	r0, #0
    83e0:	eb000087 	bl	8604 <printk>
    83e4:	eb000195 	bl	8a40 <tic>
    83e8:	e30c07d0 	movw	r0, #51152	; 0xc7d0
    83ec:	e3400000 	movt	r0, #0
    83f0:	eb00021e 	bl	8c70 <optimize_me>
    83f4:	eb00019f 	bl	8a78 <toc>
    83f8:	e50b0010 	str	r0, [fp, #-16]
    83fc:	e30a0024 	movw	r0, #40996	; 0xa024
    8400:	e3400000 	movt	r0, #0
    8404:	e51b1010 	ldr	r1, [fp, #-16]
    8408:	eb00007d 	bl	8604 <printk>
    840c:	e30a0028 	movw	r0, #41000	; 0xa028
    8410:	e3400000 	movt	r0, #0
    8414:	eb00007a 	bl	8604 <printk>
    8418:	eb000188 	bl	8a40 <tic>
    841c:	e30c0000 	movw	r0, #49152	; 0xc000
    8420:	e3400000 	movt	r0, #0
    8424:	eb0001c2 	bl	8b34 <unoptimized>
    8428:	eb000192 	bl	8a78 <toc>
    842c:	e50b0010 	str	r0, [fp, #-16]
    8430:	e30a0024 	movw	r0, #40996	; 0xa024
    8434:	e3400000 	movt	r0, #0
    8438:	e51b1010 	ldr	r1, [fp, #-16]
    843c:	eb000070 	bl	8604 <printk>
    8440:	e3a03000 	mov	r3, #0
    8444:	e50b3008 	str	r3, [fp, #-8]
    8448:	ea000012 	b	8498 <kernel_main+0x124>
    844c:	e30c37d0 	movw	r3, #51152	; 0xc7d0
    8450:	e3403000 	movt	r3, #0
    8454:	e51b2008 	ldr	r2, [fp, #-8]
    8458:	e7932102 	ldr	r2, [r3, r2, lsl #2]
    845c:	e30c3000 	movw	r3, #49152	; 0xc000
    8460:	e3403000 	movt	r3, #0
    8464:	e51b1008 	ldr	r1, [fp, #-8]
    8468:	e7933101 	ldr	r3, [r3, r1, lsl #2]
    846c:	e1520003 	cmp	r2, r3
    8470:	0a000005 	beq	848c <kernel_main+0x118>
    8474:	e30a004c 	movw	r0, #41036	; 0xa04c
    8478:	e3400000 	movt	r0, #0
    847c:	eb000060 	bl	8604 <printk>
    8480:	e3a03000 	mov	r3, #0
    8484:	e50b300c 	str	r3, [fp, #-12]
    8488:	ea000005 	b	84a4 <kernel_main+0x130>
    848c:	e51b3008 	ldr	r3, [fp, #-8]
    8490:	e2833001 	add	r3, r3, #1
    8494:	e50b3008 	str	r3, [fp, #-8]
    8498:	e51b3008 	ldr	r3, [fp, #-8]
    849c:	e3530f7d 	cmp	r3, #500	; 0x1f4
    84a0:	baffffe9 	blt	844c <kernel_main+0xd8>
    84a4:	e51b300c 	ldr	r3, [fp, #-12]
    84a8:	e3530000 	cmp	r3, #0
    84ac:	0a000002 	beq	84bc <kernel_main+0x148>
    84b0:	e30a0068 	movw	r0, #41064	; 0xa068
    84b4:	e3400000 	movt	r0, #0
    84b8:	eb000051 	bl	8604 <printk>
    84bc:	e30806a0 	movw	r0, #34464	; 0x86a0
    84c0:	e3400001 	movt	r0, #1
    84c4:	eb000178 	bl	8aac <delay_cycles>
    84c8:	eafffffb 	b	84bc <kernel_main+0x148>

000084cc <printnumk>:
    84cc:	e92d4810 	push	{r4, fp, lr}
    84d0:	e28db008 	add	fp, sp, #8
    84d4:	e24dd024 	sub	sp, sp, #36	; 0x24
    84d8:	e1a01000 	mov	r1, r0
    84dc:	e14b22fc 	strd	r2, [fp, #-44]	; 0xffffffd4
    84e0:	e1a03001 	mov	r3, r1
    84e4:	e54b301d 	strb	r3, [fp, #-29]	; 0xffffffe3
    84e8:	e3a03000 	mov	r3, #0
    84ec:	e50b3010 	str	r3, [fp, #-16]
    84f0:	e24b301c 	sub	r3, fp, #28
    84f4:	e2833007 	add	r3, r3, #7
    84f8:	e50b3014 	str	r3, [fp, #-20]	; 0xffffffec
    84fc:	e55b301d 	ldrb	r3, [fp, #-29]	; 0xffffffe3
    8500:	e3530008 	cmp	r3, #8
    8504:	1a000003 	bne	8518 <printnumk+0x4c>
    8508:	e30a3084 	movw	r3, #41092	; 0xa084
    850c:	e3403000 	movt	r3, #0
    8510:	e50b3010 	str	r3, [fp, #-16]
    8514:	ea000005 	b	8530 <printnumk+0x64>
    8518:	e55b301d 	ldrb	r3, [fp, #-29]	; 0xffffffe3
    851c:	e3530010 	cmp	r3, #16
    8520:	1a000002 	bne	8530 <printnumk+0x64>
    8524:	e30a3088 	movw	r3, #41096	; 0xa088
    8528:	e3403000 	movt	r3, #0
    852c:	e50b3010 	str	r3, [fp, #-16]
    8530:	e51b4014 	ldr	r4, [fp, #-20]	; 0xffffffec
    8534:	e2443001 	sub	r3, r4, #1
    8538:	e50b3014 	str	r3, [fp, #-20]	; 0xffffffec
    853c:	e55b201d 	ldrb	r2, [fp, #-29]	; 0xffffffe3
    8540:	e3a03000 	mov	r3, #0
    8544:	e14b02dc 	ldrd	r0, [fp, #-44]	; 0xffffffd4
    8548:	eb0001f3 	bl	8d1c <__aeabi_uldivmod>
    854c:	e1a00002 	mov	r0, r2
    8550:	e1a01003 	mov	r1, r3
    8554:	e30b3004 	movw	r3, #45060	; 0xb004
    8558:	e3403000 	movt	r3, #0
    855c:	e0833000 	add	r3, r3, r0
    8560:	e5d33000 	ldrb	r3, [r3]
    8564:	e5c43000 	strb	r3, [r4]
    8568:	e55b201d 	ldrb	r2, [fp, #-29]	; 0xffffffe3
    856c:	e3a03000 	mov	r3, #0
    8570:	e14b02dc 	ldrd	r0, [fp, #-44]	; 0xffffffd4
    8574:	eb0001e8 	bl	8d1c <__aeabi_uldivmod>
    8578:	e1a02000 	mov	r2, r0
    857c:	e1a03001 	mov	r3, r1
    8580:	e14b22fc 	strd	r2, [fp, #-44]	; 0xffffffd4
    8584:	e14b22dc 	ldrd	r2, [fp, #-44]	; 0xffffffd4
    8588:	e1923003 	orrs	r3, r2, r3
    858c:	1affffe7 	bne	8530 <printnumk+0x64>
    8590:	e51b3010 	ldr	r3, [fp, #-16]
    8594:	e3530000 	cmp	r3, #0
    8598:	0a00000a 	beq	85c8 <printnumk+0xfc>
    859c:	ea000005 	b	85b8 <printnumk+0xec>
    85a0:	e51b3010 	ldr	r3, [fp, #-16]
    85a4:	e2832001 	add	r2, r3, #1
    85a8:	e50b2010 	str	r2, [fp, #-16]
    85ac:	e5d33000 	ldrb	r3, [r3]
    85b0:	e1a00003 	mov	r0, r3
    85b4:	eb0000db 	bl	8928 <uart_put_byte>
    85b8:	e51b3010 	ldr	r3, [fp, #-16]
    85bc:	e5d33000 	ldrb	r3, [r3]
    85c0:	e3530000 	cmp	r3, #0
    85c4:	1afffff5 	bne	85a0 <printnumk+0xd4>
    85c8:	ea000003 	b	85dc <printnumk+0x110>
    85cc:	e51b3014 	ldr	r3, [fp, #-20]	; 0xffffffec
    85d0:	e5d33000 	ldrb	r3, [r3]
    85d4:	e1a00003 	mov	r0, r3
    85d8:	eb0000d2 	bl	8928 <uart_put_byte>
    85dc:	e51b3014 	ldr	r3, [fp, #-20]	; 0xffffffec
    85e0:	e2833001 	add	r3, r3, #1
    85e4:	e50b3014 	str	r3, [fp, #-20]	; 0xffffffec
    85e8:	e24b301c 	sub	r3, fp, #28
    85ec:	e2833008 	add	r3, r3, #8
    85f0:	e51b2014 	ldr	r2, [fp, #-20]	; 0xffffffec
    85f4:	e1520003 	cmp	r2, r3
    85f8:	1afffff3 	bne	85cc <printnumk+0x100>
    85fc:	e24bd008 	sub	sp, fp, #8
    8600:	e8bd8810 	pop	{r4, fp, pc}

00008604 <printk>:
    8604:	e92d000f 	push	{r0, r1, r2, r3}
    8608:	e92d4800 	push	{fp, lr}
    860c:	e28db004 	add	fp, sp, #4
    8610:	e24dd020 	sub	sp, sp, #32
    8614:	e28b3008 	add	r3, fp, #8
    8618:	e50b3020 	str	r3, [fp, #-32]	; 0xffffffe0
    861c:	ea000082 	b	882c <printk+0x228>
    8620:	e59b3004 	ldr	r3, [fp, #4]
    8624:	e5d33000 	ldrb	r3, [r3]
    8628:	e3530025 	cmp	r3, #37	; 0x25
    862c:	0a000006 	beq	864c <printk+0x48>
    8630:	e59b3004 	ldr	r3, [fp, #4]
    8634:	e2832001 	add	r2, r3, #1
    8638:	e58b2004 	str	r2, [fp, #4]
    863c:	e5d33000 	ldrb	r3, [r3]
    8640:	e1a00003 	mov	r0, r3
    8644:	eb0000b7 	bl	8928 <uart_put_byte>
    8648:	ea000077 	b	882c <printk+0x228>
    864c:	e59b3004 	ldr	r3, [fp, #4]
    8650:	e2833001 	add	r3, r3, #1
    8654:	e58b3004 	str	r3, [fp, #4]
    8658:	e59b3004 	ldr	r3, [fp, #4]
    865c:	e5d33000 	ldrb	r3, [r3]
    8660:	e353006f 	cmp	r3, #111	; 0x6f
    8664:	0a000036 	beq	8744 <printk+0x140>
    8668:	e353006f 	cmp	r3, #111	; 0x6f
    866c:	ca000006 	bgt	868c <printk+0x88>
    8670:	e3530063 	cmp	r3, #99	; 0x63
    8674:	0a00005a 	beq	87e4 <printk+0x1e0>
    8678:	e3530064 	cmp	r3, #100	; 0x64
    867c:	0a00000e 	beq	86bc <printk+0xb8>
    8680:	e3530025 	cmp	r3, #37	; 0x25
    8684:	0a000060 	beq	880c <printk+0x208>
    8688:	ea000062 	b	8818 <printk+0x214>
    868c:	e3530073 	cmp	r3, #115	; 0x73
    8690:	0a000041 	beq	879c <printk+0x198>
    8694:	e3530073 	cmp	r3, #115	; 0x73
    8698:	ca000002 	bgt	86a8 <printk+0xa4>
    869c:	e3530070 	cmp	r3, #112	; 0x70
    86a0:	0a000032 	beq	8770 <printk+0x16c>
    86a4:	ea00005b 	b	8818 <printk+0x214>
    86a8:	e3530075 	cmp	r3, #117	; 0x75
    86ac:	0a000019 	beq	8718 <printk+0x114>
    86b0:	e3530078 	cmp	r3, #120	; 0x78
    86b4:	0a00002d 	beq	8770 <printk+0x16c>
    86b8:	ea000056 	b	8818 <printk+0x214>
    86bc:	e51b3020 	ldr	r3, [fp, #-32]	; 0xffffffe0
    86c0:	e2832004 	add	r2, r3, #4
    86c4:	e50b2020 	str	r2, [fp, #-32]	; 0xffffffe0
    86c8:	e5933000 	ldr	r3, [r3]
    86cc:	e50b300c 	str	r3, [fp, #-12]
    86d0:	e51b300c 	ldr	r3, [fp, #-12]
    86d4:	e3530000 	cmp	r3, #0
    86d8:	aa000008 	bge	8700 <printk+0xfc>
    86dc:	e3a0002d 	mov	r0, #45	; 0x2d
    86e0:	eb000090 	bl	8928 <uart_put_byte>
    86e4:	e51b300c 	ldr	r3, [fp, #-12]
    86e8:	e2633000 	rsb	r3, r3, #0
    86ec:	e1a02003 	mov	r2, r3
    86f0:	e1a03fc2 	asr	r3, r2, #31
    86f4:	e3a0000a 	mov	r0, #10
    86f8:	ebffff73 	bl	84cc <printnumk>
    86fc:	ea000047 	b	8820 <printk+0x21c>
    8700:	e51b300c 	ldr	r3, [fp, #-12]
    8704:	e1a02003 	mov	r2, r3
    8708:	e1a03fc2 	asr	r3, r2, #31
    870c:	e3a0000a 	mov	r0, #10
    8710:	ebffff6d 	bl	84cc <printnumk>
    8714:	ea000041 	b	8820 <printk+0x21c>
    8718:	e51b3020 	ldr	r3, [fp, #-32]	; 0xffffffe0
    871c:	e2832004 	add	r2, r3, #4
    8720:	e50b2020 	str	r2, [fp, #-32]	; 0xffffffe0
    8724:	e5933000 	ldr	r3, [r3]
    8728:	e50b3010 	str	r3, [fp, #-16]
    872c:	e51b3010 	ldr	r3, [fp, #-16]
    8730:	e1a02003 	mov	r2, r3
    8734:	e3a03000 	mov	r3, #0
    8738:	e3a0000a 	mov	r0, #10
    873c:	ebffff62 	bl	84cc <printnumk>
    8740:	ea000036 	b	8820 <printk+0x21c>
    8744:	e51b3020 	ldr	r3, [fp, #-32]	; 0xffffffe0
    8748:	e2832004 	add	r2, r3, #4
    874c:	e50b2020 	str	r2, [fp, #-32]	; 0xffffffe0
    8750:	e5933000 	ldr	r3, [r3]
    8754:	e50b3014 	str	r3, [fp, #-20]	; 0xffffffec
    8758:	e51b3014 	ldr	r3, [fp, #-20]	; 0xffffffec
    875c:	e1a02003 	mov	r2, r3
    8760:	e3a03000 	mov	r3, #0
    8764:	e3a00008 	mov	r0, #8
    8768:	ebffff57 	bl	84cc <printnumk>
    876c:	ea00002b 	b	8820 <printk+0x21c>
    8770:	e51b3020 	ldr	r3, [fp, #-32]	; 0xffffffe0
    8774:	e2832004 	add	r2, r3, #4
    8778:	e50b2020 	str	r2, [fp, #-32]	; 0xffffffe0
    877c:	e5933000 	ldr	r3, [r3]
    8780:	e50b3018 	str	r3, [fp, #-24]	; 0xffffffe8
    8784:	e51b3018 	ldr	r3, [fp, #-24]	; 0xffffffe8
    8788:	e1a02003 	mov	r2, r3
    878c:	e3a03000 	mov	r3, #0
    8790:	e3a00010 	mov	r0, #16
    8794:	ebffff4c 	bl	84cc <printnumk>
    8798:	ea000020 	b	8820 <printk+0x21c>
    879c:	e51b3020 	ldr	r3, [fp, #-32]	; 0xffffffe0
    87a0:	e2832004 	add	r2, r3, #4
    87a4:	e50b2020 	str	r2, [fp, #-32]	; 0xffffffe0
    87a8:	e5933000 	ldr	r3, [r3]
    87ac:	e50b3008 	str	r3, [fp, #-8]
    87b0:	ea000006 	b	87d0 <printk+0x1cc>
    87b4:	e51b3008 	ldr	r3, [fp, #-8]
    87b8:	e5d33000 	ldrb	r3, [r3]
    87bc:	e1a00003 	mov	r0, r3
    87c0:	eb000058 	bl	8928 <uart_put_byte>
    87c4:	e51b3008 	ldr	r3, [fp, #-8]
    87c8:	e2833001 	add	r3, r3, #1
    87cc:	e50b3008 	str	r3, [fp, #-8]
    87d0:	e51b3008 	ldr	r3, [fp, #-8]
    87d4:	e5d33000 	ldrb	r3, [r3]
    87d8:	e3530000 	cmp	r3, #0
    87dc:	1afffff4 	bne	87b4 <printk+0x1b0>
    87e0:	ea00000e 	b	8820 <printk+0x21c>
    87e4:	e51b3020 	ldr	r3, [fp, #-32]	; 0xffffffe0
    87e8:	e2832004 	add	r2, r3, #4
    87ec:	e50b2020 	str	r2, [fp, #-32]	; 0xffffffe0
    87f0:	e5933000 	ldr	r3, [r3]
    87f4:	e50b301c 	str	r3, [fp, #-28]	; 0xffffffe4
    87f8:	e51b301c 	ldr	r3, [fp, #-28]	; 0xffffffe4
    87fc:	e6ef3073 	uxtb	r3, r3
    8800:	e1a00003 	mov	r0, r3
    8804:	eb000047 	bl	8928 <uart_put_byte>
    8808:	ea000004 	b	8820 <printk+0x21c>
    880c:	e3a00025 	mov	r0, #37	; 0x25
    8810:	eb000044 	bl	8928 <uart_put_byte>
    8814:	ea000001 	b	8820 <printk+0x21c>
    8818:	e3e03000 	mvn	r3, #0
    881c:	ea000007 	b	8840 <printk+0x23c>
    8820:	e59b3004 	ldr	r3, [fp, #4]
    8824:	e2833001 	add	r3, r3, #1
    8828:	e58b3004 	str	r3, [fp, #4]
    882c:	e59b3004 	ldr	r3, [fp, #4]
    8830:	e5d33000 	ldrb	r3, [r3]
    8834:	e3530000 	cmp	r3, #0
    8838:	1affff78 	bne	8620 <printk+0x1c>
    883c:	e3a03000 	mov	r3, #0
    8840:	e1a00003 	mov	r0, r3
    8844:	e24bd004 	sub	sp, fp, #4
    8848:	e8bd4800 	pop	{fp, lr}
    884c:	e28dd010 	add	sp, sp, #16
    8850:	e12fff1e 	bx	lr

00008854 <uart_init>:
    8854:	e92d4800 	push	{fp, lr}
    8858:	e28db004 	add	fp, sp, #4
    885c:	e3a0000f 	mov	r0, #15
    8860:	e3a01000 	mov	r1, #0
    8864:	ebfffe84 	bl	827c <gpio_set_pull>
    8868:	e3a0000e 	mov	r0, #14
    886c:	e3a01000 	mov	r1, #0
    8870:	ebfffe81 	bl	827c <gpio_set_pull>
    8874:	e3a0000f 	mov	r0, #15
    8878:	e3a01002 	mov	r1, #2
    887c:	ebfffdf4 	bl	8054 <gpio_config>
    8880:	e3a0000e 	mov	r0, #14
    8884:	e3a01002 	mov	r1, #2
    8888:	ebfffdf1 	bl	8054 <gpio_config>
    888c:	e3053004 	movw	r3, #20484	; 0x5004
    8890:	e3433f21 	movt	r3, #16161	; 0x3f21
    8894:	e3052004 	movw	r2, #20484	; 0x5004
    8898:	e3432f21 	movt	r2, #16161	; 0x3f21
    889c:	e5922000 	ldr	r2, [r2]
    88a0:	e3822001 	orr	r2, r2, #1
    88a4:	e5832000 	str	r2, [r3]
    88a8:	e305304c 	movw	r3, #20556	; 0x504c
    88ac:	e3433f21 	movt	r3, #16161	; 0x3f21
    88b0:	e3a02003 	mov	r2, #3
    88b4:	e5832000 	str	r2, [r3]
    88b8:	e3053044 	movw	r3, #20548	; 0x5044
    88bc:	e3433f21 	movt	r3, #16161	; 0x3f21
    88c0:	e3a02000 	mov	r2, #0
    88c4:	e5832000 	str	r2, [r3]
    88c8:	e3053068 	movw	r3, #20584	; 0x5068
    88cc:	e3433f21 	movt	r3, #16161	; 0x3f21
    88d0:	e300210e 	movw	r2, #270	; 0x10e
    88d4:	e5832000 	str	r2, [r3]
    88d8:	e8bd8800 	pop	{fp, pc}

000088dc <uart_close>:
    88dc:	e52db004 	push	{fp}		; (str fp, [sp, #-4]!)
    88e0:	e28db000 	add	fp, sp, #0
    88e4:	e3053048 	movw	r3, #20552	; 0x5048
    88e8:	e3433f21 	movt	r3, #16161	; 0x3f21
    88ec:	e3052048 	movw	r2, #20552	; 0x5048
    88f0:	e3432f21 	movt	r2, #16161	; 0x3f21
    88f4:	e5922000 	ldr	r2, [r2]
    88f8:	e3822006 	orr	r2, r2, #6
    88fc:	e5832000 	str	r2, [r3]
    8900:	e3053004 	movw	r3, #20484	; 0x5004
    8904:	e3433f21 	movt	r3, #16161	; 0x3f21
    8908:	e3052004 	movw	r2, #20484	; 0x5004
    890c:	e3432f21 	movt	r2, #16161	; 0x3f21
    8910:	e5922000 	ldr	r2, [r2]
    8914:	e3c22001 	bic	r2, r2, #1
    8918:	e5832000 	str	r2, [r3]
    891c:	e24bd000 	sub	sp, fp, #0
    8920:	e49db004 	pop	{fp}		; (ldr fp, [sp], #4)
    8924:	e12fff1e 	bx	lr

00008928 <uart_put_byte>:
    8928:	e52db004 	push	{fp}		; (str fp, [sp, #-4]!)
    892c:	e28db000 	add	fp, sp, #0
    8930:	e24dd00c 	sub	sp, sp, #12
    8934:	e1a03000 	mov	r3, r0
    8938:	e54b3005 	strb	r3, [fp, #-5]
    893c:	e1a00000 	nop			; (mov r0, r0)
    8940:	e3053054 	movw	r3, #20564	; 0x5054
    8944:	e3433f21 	movt	r3, #16161	; 0x3f21
    8948:	e5933000 	ldr	r3, [r3]
    894c:	e2033020 	and	r3, r3, #32
    8950:	e3530000 	cmp	r3, #0
    8954:	0afffff9 	beq	8940 <uart_put_byte+0x18>
    8958:	e3053040 	movw	r3, #20544	; 0x5040
    895c:	e3433f21 	movt	r3, #16161	; 0x3f21
    8960:	e55b2005 	ldrb	r2, [fp, #-5]
    8964:	e5c32000 	strb	r2, [r3]
    8968:	e24bd000 	sub	sp, fp, #0
    896c:	e49db004 	pop	{fp}		; (ldr fp, [sp], #4)
    8970:	e12fff1e 	bx	lr

00008974 <uart_get_byte>:
    8974:	e52db004 	push	{fp}		; (str fp, [sp, #-4]!)
    8978:	e28db000 	add	fp, sp, #0
    897c:	e1a00000 	nop			; (mov r0, r0)
    8980:	e3053054 	movw	r3, #20564	; 0x5054
    8984:	e3433f21 	movt	r3, #16161	; 0x3f21
    8988:	e5933000 	ldr	r3, [r3]
    898c:	e2033001 	and	r3, r3, #1
    8990:	e3530000 	cmp	r3, #0
    8994:	0afffff9 	beq	8980 <uart_get_byte+0xc>
    8998:	e3053040 	movw	r3, #20544	; 0x5040
    899c:	e3433f21 	movt	r3, #16161	; 0x3f21
    89a0:	e5d33000 	ldrb	r3, [r3]
    89a4:	e6ef3073 	uxtb	r3, r3
    89a8:	e1a00003 	mov	r0, r3
    89ac:	e24bd000 	sub	sp, fp, #0
    89b0:	e49db004 	pop	{fp}		; (ldr fp, [sp], #4)
    89b4:	e12fff1e 	bx	lr

000089b8 <timer_start>:
    89b8:	e52db004 	push	{fp}		; (str fp, [sp, #-4]!)
    89bc:	e28db000 	add	fp, sp, #0
    89c0:	e24dd00c 	sub	sp, sp, #12
    89c4:	e50b0008 	str	r0, [fp, #-8]
    89c8:	e1a00000 	nop			; (mov r0, r0)
    89cc:	e24bd000 	sub	sp, fp, #0
    89d0:	e49db004 	pop	{fp}		; (ldr fp, [sp], #4)
    89d4:	e12fff1e 	bx	lr

000089d8 <timer_stop>:
    89d8:	e52db004 	push	{fp}		; (str fp, [sp, #-4]!)
    89dc:	e28db000 	add	fp, sp, #0
    89e0:	e1a00000 	nop			; (mov r0, r0)
    89e4:	e24bd000 	sub	sp, fp, #0
    89e8:	e49db004 	pop	{fp}		; (ldr fp, [sp], #4)
    89ec:	e12fff1e 	bx	lr

000089f0 <timer_read>:
    89f0:	e52db004 	push	{fp}		; (str fp, [sp, #-4]!)
    89f4:	e28db000 	add	fp, sp, #0
    89f8:	e3a03000 	mov	r3, #0
    89fc:	e1a00003 	mov	r0, r3
    8a00:	e24bd000 	sub	sp, fp, #0
    8a04:	e49db004 	pop	{fp}		; (ldr fp, [sp], #4)
    8a08:	e12fff1e 	bx	lr

00008a0c <timer_is_pending>:
    8a0c:	e52db004 	push	{fp}		; (str fp, [sp, #-4]!)
    8a10:	e28db000 	add	fp, sp, #0
    8a14:	e3a03000 	mov	r3, #0
    8a18:	e1a00003 	mov	r0, r3
    8a1c:	e24bd000 	sub	sp, fp, #0
    8a20:	e49db004 	pop	{fp}		; (ldr fp, [sp], #4)
    8a24:	e12fff1e 	bx	lr

00008a28 <timer_clear_pending>:
    8a28:	e52db004 	push	{fp}		; (str fp, [sp, #-4]!)
    8a2c:	e28db000 	add	fp, sp, #0
    8a30:	e1a00000 	nop			; (mov r0, r0)
    8a34:	e24bd000 	sub	sp, fp, #0
    8a38:	e49db004 	pop	{fp}		; (ldr fp, [sp], #4)
    8a3c:	e12fff1e 	bx	lr

00008a40 <tic>:
    8a40:	e52db004 	push	{fp}		; (str fp, [sp, #-4]!)
    8a44:	e28db000 	add	fp, sp, #0
    8a48:	e30b3408 	movw	r3, #46088	; 0xb408
    8a4c:	e3433f00 	movt	r3, #16128	; 0x3f00
    8a50:	e3a02082 	mov	r2, #130	; 0x82
    8a54:	e5832000 	str	r2, [r3]
    8a58:	e3a03b2d 	mov	r3, #46080	; 0xb400
    8a5c:	e3433f00 	movt	r3, #16128	; 0x3f00
    8a60:	e3e02000 	mvn	r2, #0
    8a64:	e5832000 	str	r2, [r3]
    8a68:	e1a00000 	nop			; (mov r0, r0)
    8a6c:	e24bd000 	sub	sp, fp, #0
    8a70:	e49db004 	pop	{fp}		; (ldr fp, [sp], #4)
    8a74:	e12fff1e 	bx	lr

00008a78 <toc>:
    8a78:	e52db004 	push	{fp}		; (str fp, [sp, #-4]!)
    8a7c:	e28db000 	add	fp, sp, #0
    8a80:	e24dd00c 	sub	sp, sp, #12
    8a84:	e30b3404 	movw	r3, #46084	; 0xb404
    8a88:	e3433f00 	movt	r3, #16128	; 0x3f00
    8a8c:	e5933000 	ldr	r3, [r3]
    8a90:	e50b3008 	str	r3, [fp, #-8]
    8a94:	e51b3008 	ldr	r3, [fp, #-8]
    8a98:	e1e03003 	mvn	r3, r3
    8a9c:	e1a00003 	mov	r0, r3
    8aa0:	e24bd000 	sub	sp, fp, #0
    8aa4:	e49db004 	pop	{fp}		; (ldr fp, [sp], #4)
    8aa8:	e12fff1e 	bx	lr

00008aac <delay_cycles>:
    8aac:	e2500001 	subs	r0, r0, #1
    8ab0:	1afffffd 	bne	8aac <delay_cycles>
    8ab4:	e1a0f00e 	mov	pc, lr

00008ab8 <read_cpsr>:
    8ab8:	e10f0000 	mrs	r0, CPSR
    8abc:	e1a0f00e 	mov	pc, lr

00008ac0 <write_cpsr>:
    8ac0:	e129f000 	msr	CPSR_fc, r0
    8ac4:	e1a0f00e 	mov	pc, lr

00008ac8 <disable_interrupts>:
    8ac8:	e10f0000 	mrs	r0, CPSR
    8acc:	e3a01d07 	mov	r1, #448	; 0x1c0
    8ad0:	e1800001 	orr	r0, r0, r1
    8ad4:	e129f000 	msr	CPSR_fc, r0
    8ad8:	e1a0f00e 	mov	pc, lr

00008adc <enable_interrupts>:
    8adc:	e10f0000 	mrs	r0, CPSR
    8ae0:	e3a01d07 	mov	r1, #448	; 0x1c0
    8ae4:	e1c00001 	bic	r0, r0, r1
    8ae8:	e129f000 	msr	CPSR_fc, r0
    8aec:	e1a0f00e 	mov	pc, lr

00008af0 <func2>:
    8af0:	e52db004 	push	{fp}		; (str fp, [sp, #-4]!)
    8af4:	e28db000 	add	fp, sp, #0
    8af8:	e24dd00c 	sub	sp, sp, #12
    8afc:	e50b0008 	str	r0, [fp, #-8]
    8b00:	e50b100c 	str	r1, [fp, #-12]
    8b04:	e51b200c 	ldr	r2, [fp, #-12]
    8b08:	e1a03002 	mov	r3, r2
    8b0c:	e1a03103 	lsl	r3, r3, #2
    8b10:	e0833002 	add	r3, r3, r2
    8b14:	e1a02103 	lsl	r2, r3, #2
    8b18:	e0832002 	add	r2, r3, r2
    8b1c:	e51b3008 	ldr	r3, [fp, #-8]
    8b20:	e0823003 	add	r3, r2, r3
    8b24:	e1a00003 	mov	r0, r3
    8b28:	e24bd000 	sub	sp, fp, #0
    8b2c:	e49db004 	pop	{fp}		; (ldr fp, [sp], #4)
    8b30:	e12fff1e 	bx	lr

00008b34 <unoptimized>:
    8b34:	e92d4870 	push	{r4, r5, r6, fp, lr}
    8b38:	e28db010 	add	fp, sp, #16
    8b3c:	e24dd01c 	sub	sp, sp, #28
    8b40:	e50b0028 	str	r0, [fp, #-40]	; 0xffffffd8
    8b44:	e3a03000 	mov	r3, #0
    8b48:	e50b3018 	str	r3, [fp, #-24]	; 0xffffffe8
    8b4c:	ea000037 	b	8c30 <unoptimized+0xfc>
    8b50:	e3a03011 	mov	r3, #17
    8b54:	e50b3020 	str	r3, [fp, #-32]	; 0xffffffe0
    8b58:	e3a03000 	mov	r3, #0
    8b5c:	e50b301c 	str	r3, [fp, #-28]	; 0xffffffe4
    8b60:	ea00002c 	b	8c18 <unoptimized+0xe4>
    8b64:	e3a03002 	mov	r3, #2
    8b68:	e50b3024 	str	r3, [fp, #-36]	; 0xffffffdc
    8b6c:	e51b3024 	ldr	r3, [fp, #-36]	; 0xffffffdc
    8b70:	e2833001 	add	r3, r3, #1
    8b74:	e50b3024 	str	r3, [fp, #-36]	; 0xffffffdc
    8b78:	e51b3024 	ldr	r3, [fp, #-36]	; 0xffffffdc
    8b7c:	e2432002 	sub	r2, r3, #2
    8b80:	e1a03002 	mov	r3, r2
    8b84:	e1a03083 	lsl	r3, r3, #1
    8b88:	e0833002 	add	r3, r3, r2
    8b8c:	e50b3024 	str	r3, [fp, #-36]	; 0xffffffdc
    8b90:	e51b301c 	ldr	r3, [fp, #-28]	; 0xffffffe4
    8b94:	e1a03103 	lsl	r3, r3, #2
    8b98:	e51b2028 	ldr	r2, [fp, #-40]	; 0xffffffd8
    8b9c:	e0824003 	add	r4, r2, r3
    8ba0:	e51b301c 	ldr	r3, [fp, #-28]	; 0xffffffe4
    8ba4:	e1a03103 	lsl	r3, r3, #2
    8ba8:	e51b2028 	ldr	r2, [fp, #-40]	; 0xffffffd8
    8bac:	e0823003 	add	r3, r2, r3
    8bb0:	e5933000 	ldr	r3, [r3]
    8bb4:	e51b2020 	ldr	r2, [fp, #-32]	; 0xffffffe0
    8bb8:	e0030392 	mul	r3, r2, r3
    8bbc:	e2835010 	add	r5, r3, #16
    8bc0:	e51b3018 	ldr	r3, [fp, #-24]	; 0xffffffe8
    8bc4:	e1a03103 	lsl	r3, r3, #2
    8bc8:	e51b2028 	ldr	r2, [fp, #-40]	; 0xffffffd8
    8bcc:	e0823003 	add	r3, r2, r3
    8bd0:	e5936000 	ldr	r6, [r3]
    8bd4:	e51b0018 	ldr	r0, [fp, #-24]	; 0xffffffe8
    8bd8:	e51b101c 	ldr	r1, [fp, #-28]	; 0xffffffe4
    8bdc:	ebffffc3 	bl	8af0 <func2>
    8be0:	e1a03000 	mov	r3, r0
    8be4:	e0030396 	mul	r3, r6, r3
    8be8:	e0852003 	add	r2, r5, r3
    8bec:	e51b3024 	ldr	r3, [fp, #-36]	; 0xffffffdc
    8bf0:	e0823003 	add	r3, r2, r3
    8bf4:	e283200f 	add	r2, r3, #15
    8bf8:	e3530000 	cmp	r3, #0
    8bfc:	b1a03002 	movlt	r3, r2
    8c00:	a1a03003 	movge	r3, r3
    8c04:	e1a03243 	asr	r3, r3, #4
    8c08:	e5843000 	str	r3, [r4]
    8c0c:	e51b301c 	ldr	r3, [fp, #-28]	; 0xffffffe4
    8c10:	e2833001 	add	r3, r3, #1
    8c14:	e50b301c 	str	r3, [fp, #-28]	; 0xffffffe4
    8c18:	e51b301c 	ldr	r3, [fp, #-28]	; 0xffffffe4
    8c1c:	e3530f7d 	cmp	r3, #500	; 0x1f4
    8c20:	baffffcf 	blt	8b64 <unoptimized+0x30>
    8c24:	e51b3018 	ldr	r3, [fp, #-24]	; 0xffffffe8
    8c28:	e2833001 	add	r3, r3, #1
    8c2c:	e50b3018 	str	r3, [fp, #-24]	; 0xffffffe8
    8c30:	e51b3018 	ldr	r3, [fp, #-24]	; 0xffffffe8
    8c34:	e3530f7d 	cmp	r3, #500	; 0x1f4
    8c38:	baffffc4 	blt	8b50 <unoptimized+0x1c>
    8c3c:	e24bd010 	sub	sp, fp, #16
    8c40:	e8bd4870 	pop	{r4, r5, r6, fp, lr}
    8c44:	e12fff1e 	bx	lr

00008c48 <func>:
    8c48:	e52db004 	push	{fp}		; (str fp, [sp, #-4]!)
    8c4c:	e28db000 	add	fp, sp, #0
    8c50:	e24dd00c 	sub	sp, sp, #12
    8c54:	e0812181 	add	r2, r1, r1, lsl #3
    8c58:	e0822201 	add	r2, r2, r1, lsl #4
    8c5c:	e0823000 	add	r3, r2, r0
    8c60:	e1a00003 	mov	r0, r3
    8c64:	e1a0d00b 	mov	sp, fp
    8c68:	e49db004 	pop	{fp}		; (ldr fp, [sp], #4)
    8c6c:	e12fff1e 	bx	lr

00008c70 <optimize_me>:
    8c70:	e92d49f0 	push	{r4, r5, r6, r7, r8, fp, lr}
    8c74:	e28db010 	add	fp, sp, #16
    8c78:	e24dd01c 	sub	sp, sp, #28
    8c7c:	e50b0028 	str	r0, [fp, #-40]	; 0xffffffd8
    8c80:	e3a07000 	mov	r7, #0
    8c84:	ea00001f 	b	8d08 <optimize_me+0x98>
    8c88:	e3a08000 	mov	r8, #0
    8c8c:	ea00001a 	b	8cfc <optimize_me+0x8c>
    8c90:	e3a03003 	mov	r3, #3
    8c94:	e50b3024 	str	r3, [fp, #-36]	; 0xffffffdc
    8c98:	e1a03008 	mov	r3, r8
    8c9c:	e1a03103 	lsl	r3, r3, #2
    8ca0:	e51b2028 	ldr	r2, [fp, #-40]	; 0xffffffd8
    8ca4:	e0823003 	add	r3, r2, r3
    8ca8:	e1a04003 	mov	r4, r3
    8cac:	e5933000 	ldr	r3, [r3]
    8cb0:	e0833203 	add	r3, r3, r3, lsl #4
    8cb4:	e2835010 	add	r5, r3, #16
    8cb8:	e1a03107 	lsl	r3, r7, #2
    8cbc:	e0823003 	add	r3, r2, r3
    8cc0:	e5936000 	ldr	r6, [r3]
    8cc4:	e0882188 	add	r2, r8, r8, lsl #3
    8cc8:	e0822208 	add	r2, r2, r8, lsl #4
    8ccc:	e0820007 	add	r0, r2, r7
    8cd0:	e0030096 	mul	r3, r6, r0
    8cd4:	e0852003 	add	r2, r5, r3
    8cd8:	e51b3024 	ldr	r3, [fp, #-36]	; 0xffffffdc
    8cdc:	e0823003 	add	r3, r2, r3
    8ce0:	e283200f 	add	r2, r3, #15
    8ce4:	e3530000 	cmp	r3, #0
    8ce8:	b1a03002 	movlt	r3, r2
    8cec:	a1a03003 	movge	r3, r3
    8cf0:	e1a03243 	asr	r3, r3, #4
    8cf4:	e5843000 	str	r3, [r4]
    8cf8:	e2888001 	add	r8, r8, #1
    8cfc:	e3580f7d 	cmp	r8, #500	; 0x1f4
    8d00:	baffffe2 	blt	8c90 <optimize_me+0x20>
    8d04:	e2877001 	add	r7, r7, #1
    8d08:	e3570f7d 	cmp	r7, #500	; 0x1f4
    8d0c:	baffffdd 	blt	8c88 <optimize_me+0x18>
    8d10:	e24bd010 	sub	sp, fp, #16
    8d14:	e8bd49f0 	pop	{r4, r5, r6, r7, r8, fp, lr}
    8d18:	e12fff1e 	bx	lr

00008d1c <__aeabi_uldivmod>:
    8d1c:	e3530000 	cmp	r3, #0
    8d20:	03520000 	cmpeq	r2, #0
    8d24:	1a000004 	bne	8d3c <__aeabi_uldivmod+0x20>
    8d28:	e3510000 	cmp	r1, #0
    8d2c:	03500000 	cmpeq	r0, #0
    8d30:	13e01000 	mvnne	r1, #0
    8d34:	13e00000 	mvnne	r0, #0
    8d38:	ea000027 	b	8ddc <__aeabi_idiv0>
    8d3c:	e24dd008 	sub	sp, sp, #8
    8d40:	e92d6000 	push	{sp, lr}
    8d44:	eb000014 	bl	8d9c <__gnu_uldivmod_helper>
    8d48:	e59de004 	ldr	lr, [sp, #4]
    8d4c:	e28dd008 	add	sp, sp, #8
    8d50:	e8bd000c 	pop	{r2, r3}
    8d54:	e12fff1e 	bx	lr

00008d58 <__gnu_ldivmod_helper>:
    8d58:	e92d47f0 	push	{r4, r5, r6, r7, r8, r9, sl, lr}
    8d5c:	e59d6020 	ldr	r6, [sp, #32]
    8d60:	e1a07002 	mov	r7, r2
    8d64:	e1a0a003 	mov	sl, r3
    8d68:	e1a04000 	mov	r4, r0
    8d6c:	e1a05001 	mov	r5, r1
    8d70:	eb00001a 	bl	8de0 <__divdi3>
    8d74:	e1a03000 	mov	r3, r0
    8d78:	e0020197 	mul	r2, r7, r1
    8d7c:	e0898097 	umull	r8, r9, r7, r0
    8d80:	e023239a 	mla	r3, sl, r3, r2
    8d84:	e0544008 	subs	r4, r4, r8
    8d88:	e0839009 	add	r9, r3, r9
    8d8c:	e0c55009 	sbc	r5, r5, r9
    8d90:	e8860030 	stm	r6, {r4, r5}
    8d94:	e8bd47f0 	pop	{r4, r5, r6, r7, r8, r9, sl, lr}
    8d98:	e12fff1e 	bx	lr

00008d9c <__gnu_uldivmod_helper>:
    8d9c:	e92d41f0 	push	{r4, r5, r6, r7, r8, lr}
    8da0:	e59d5018 	ldr	r5, [sp, #24]
    8da4:	e1a04002 	mov	r4, r2
    8da8:	e1a08003 	mov	r8, r3
    8dac:	e1a06000 	mov	r6, r0
    8db0:	e1a07001 	mov	r7, r1
    8db4:	eb000067 	bl	8f58 <__udivdi3>
    8db8:	e0080890 	mul	r8, r0, r8
    8dbc:	e0832490 	umull	r2, r3, r0, r4
    8dc0:	e0248491 	mla	r4, r1, r4, r8
    8dc4:	e0566002 	subs	r6, r6, r2
    8dc8:	e0843003 	add	r3, r4, r3
    8dcc:	e0c77003 	sbc	r7, r7, r3
    8dd0:	e88500c0 	stm	r5, {r6, r7}
    8dd4:	e8bd41f0 	pop	{r4, r5, r6, r7, r8, lr}
    8dd8:	e12fff1e 	bx	lr

00008ddc <__aeabi_idiv0>:
    8ddc:	e12fff1e 	bx	lr

00008de0 <__divdi3>:
    8de0:	e3510000 	cmp	r1, #0
    8de4:	e92d4ff8 	push	{r3, r4, r5, r6, r7, r8, r9, sl, fp, lr}
    8de8:	a1a04000 	movge	r4, r0
    8dec:	a1a05001 	movge	r5, r1
    8df0:	a3a0a000 	movge	sl, #0
    8df4:	ba000053 	blt	8f48 <__divdi3+0x168>
    8df8:	e3530000 	cmp	r3, #0
    8dfc:	a1a08002 	movge	r8, r2
    8e00:	a1a09003 	movge	r9, r3
    8e04:	ba00004b 	blt	8f38 <__divdi3+0x158>
    8e08:	e1550009 	cmp	r5, r9
    8e0c:	01540008 	cmpeq	r4, r8
    8e10:	33a02000 	movcc	r2, #0
    8e14:	33a03000 	movcc	r3, #0
    8e18:	3a00003b 	bcc	8f0c <__divdi3+0x12c>
    8e1c:	e1a01009 	mov	r1, r9
    8e20:	e1a00008 	mov	r0, r8
    8e24:	eb000093 	bl	9078 <__clzdi2>
    8e28:	e1a01005 	mov	r1, r5
    8e2c:	e1a0b000 	mov	fp, r0
    8e30:	e1a00004 	mov	r0, r4
    8e34:	eb00008f 	bl	9078 <__clzdi2>
    8e38:	e060000b 	rsb	r0, r0, fp
    8e3c:	e240e020 	sub	lr, r0, #32
    8e40:	e1a07019 	lsl	r7, r9, r0
    8e44:	e1877e18 	orr	r7, r7, r8, lsl lr
    8e48:	e260c020 	rsb	ip, r0, #32
    8e4c:	e1877c38 	orr	r7, r7, r8, lsr ip
    8e50:	e1550007 	cmp	r5, r7
    8e54:	e1a06018 	lsl	r6, r8, r0
    8e58:	01540006 	cmpeq	r4, r6
    8e5c:	e1a01000 	mov	r1, r0
    8e60:	33a02000 	movcc	r2, #0
    8e64:	33a03000 	movcc	r3, #0
    8e68:	3a000005 	bcc	8e84 <__divdi3+0xa4>
    8e6c:	e3a08001 	mov	r8, #1
    8e70:	e0544006 	subs	r4, r4, r6
    8e74:	e1a03e18 	lsl	r3, r8, lr
    8e78:	e1833c38 	orr	r3, r3, r8, lsr ip
    8e7c:	e0c55007 	sbc	r5, r5, r7
    8e80:	e1a02018 	lsl	r2, r8, r0
    8e84:	e3500000 	cmp	r0, #0
    8e88:	0a00001f 	beq	8f0c <__divdi3+0x12c>
    8e8c:	e1b070a7 	lsrs	r7, r7, #1
    8e90:	e1a06066 	rrx	r6, r6
    8e94:	ea000007 	b	8eb8 <__divdi3+0xd8>
    8e98:	e0544006 	subs	r4, r4, r6
    8e9c:	e0c55007 	sbc	r5, r5, r7
    8ea0:	e0944004 	adds	r4, r4, r4
    8ea4:	e0a55005 	adc	r5, r5, r5
    8ea8:	e2944001 	adds	r4, r4, #1
    8eac:	e2a55000 	adc	r5, r5, #0
    8eb0:	e2500001 	subs	r0, r0, #1
    8eb4:	0a000006 	beq	8ed4 <__divdi3+0xf4>
    8eb8:	e1570005 	cmp	r7, r5
    8ebc:	01560004 	cmpeq	r6, r4
    8ec0:	9afffff4 	bls	8e98 <__divdi3+0xb8>
    8ec4:	e0944004 	adds	r4, r4, r4
    8ec8:	e0a55005 	adc	r5, r5, r5
    8ecc:	e2500001 	subs	r0, r0, #1
    8ed0:	1afffff8 	bne	8eb8 <__divdi3+0xd8>
    8ed4:	e261c020 	rsb	ip, r1, #32
    8ed8:	e1a00134 	lsr	r0, r4, r1
    8edc:	e0922004 	adds	r2, r2, r4
    8ee0:	e241e020 	sub	lr, r1, #32
    8ee4:	e1800c15 	orr	r0, r0, r5, lsl ip
    8ee8:	e1a04135 	lsr	r4, r5, r1
    8eec:	e1800e35 	orr	r0, r0, r5, lsr lr
    8ef0:	e1a07114 	lsl	r7, r4, r1
    8ef4:	e1877e10 	orr	r7, r7, r0, lsl lr
    8ef8:	e1a06110 	lsl	r6, r0, r1
    8efc:	e0a33005 	adc	r3, r3, r5
    8f00:	e1877c30 	orr	r7, r7, r0, lsr ip
    8f04:	e0522006 	subs	r2, r2, r6
    8f08:	e0c33007 	sbc	r3, r3, r7
    8f0c:	e29a0000 	adds	r0, sl, #0
    8f10:	13a00001 	movne	r0, #1
    8f14:	e3a01000 	mov	r1, #0
    8f18:	e2704000 	rsbs	r4, r0, #0
    8f1c:	e2e15000 	rsc	r5, r1, #0
    8f20:	e0222004 	eor	r2, r2, r4
    8f24:	e0233005 	eor	r3, r3, r5
    8f28:	e0900002 	adds	r0, r0, r2
    8f2c:	e0a11003 	adc	r1, r1, r3
    8f30:	e8bd4ff8 	pop	{r3, r4, r5, r6, r7, r8, r9, sl, fp, lr}
    8f34:	e12fff1e 	bx	lr
    8f38:	e2728000 	rsbs	r8, r2, #0
    8f3c:	e1e0a00a 	mvn	sl, sl
    8f40:	e2e39000 	rsc	r9, r3, #0
    8f44:	eaffffaf 	b	8e08 <__divdi3+0x28>
    8f48:	e2704000 	rsbs	r4, r0, #0
    8f4c:	e2e15000 	rsc	r5, r1, #0
    8f50:	e3e0a000 	mvn	sl, #0
    8f54:	eaffffa7 	b	8df8 <__divdi3+0x18>

00008f58 <__udivdi3>:
    8f58:	e1510003 	cmp	r1, r3
    8f5c:	01500002 	cmpeq	r0, r2
    8f60:	e92d47f0 	push	{r4, r5, r6, r7, r8, r9, sl, lr}
    8f64:	e1a04000 	mov	r4, r0
    8f68:	e1a05001 	mov	r5, r1
    8f6c:	e1a08002 	mov	r8, r2
    8f70:	e1a09003 	mov	r9, r3
    8f74:	33a00000 	movcc	r0, #0
    8f78:	33a01000 	movcc	r1, #0
    8f7c:	3a00003b 	bcc	9070 <__udivdi3+0x118>
    8f80:	e1a01003 	mov	r1, r3
    8f84:	e1a00002 	mov	r0, r2
    8f88:	eb00003a 	bl	9078 <__clzdi2>
    8f8c:	e1a01005 	mov	r1, r5
    8f90:	e1a0a000 	mov	sl, r0
    8f94:	e1a00004 	mov	r0, r4
    8f98:	eb000036 	bl	9078 <__clzdi2>
    8f9c:	e060300a 	rsb	r3, r0, sl
    8fa0:	e243e020 	sub	lr, r3, #32
    8fa4:	e1a07319 	lsl	r7, r9, r3
    8fa8:	e1877e18 	orr	r7, r7, r8, lsl lr
    8fac:	e263c020 	rsb	ip, r3, #32
    8fb0:	e1877c38 	orr	r7, r7, r8, lsr ip
    8fb4:	e1550007 	cmp	r5, r7
    8fb8:	e1a06318 	lsl	r6, r8, r3
    8fbc:	01540006 	cmpeq	r4, r6
    8fc0:	e1a02003 	mov	r2, r3
    8fc4:	33a00000 	movcc	r0, #0
    8fc8:	33a01000 	movcc	r1, #0
    8fcc:	3a000005 	bcc	8fe8 <__udivdi3+0x90>
    8fd0:	e3a08001 	mov	r8, #1
    8fd4:	e0544006 	subs	r4, r4, r6
    8fd8:	e1a01e18 	lsl	r1, r8, lr
    8fdc:	e1811c38 	orr	r1, r1, r8, lsr ip
    8fe0:	e0c55007 	sbc	r5, r5, r7
    8fe4:	e1a00318 	lsl	r0, r8, r3
    8fe8:	e3530000 	cmp	r3, #0
    8fec:	0a00001f 	beq	9070 <__udivdi3+0x118>
    8ff0:	e1b070a7 	lsrs	r7, r7, #1
    8ff4:	e1a06066 	rrx	r6, r6
    8ff8:	ea000007 	b	901c <__udivdi3+0xc4>
    8ffc:	e0544006 	subs	r4, r4, r6
    9000:	e0c55007 	sbc	r5, r5, r7
    9004:	e0944004 	adds	r4, r4, r4
    9008:	e0a55005 	adc	r5, r5, r5
    900c:	e2944001 	adds	r4, r4, #1
    9010:	e2a55000 	adc	r5, r5, #0
    9014:	e2533001 	subs	r3, r3, #1
    9018:	0a000006 	beq	9038 <__udivdi3+0xe0>
    901c:	e1570005 	cmp	r7, r5
    9020:	01560004 	cmpeq	r6, r4
    9024:	9afffff4 	bls	8ffc <__udivdi3+0xa4>
    9028:	e0944004 	adds	r4, r4, r4
    902c:	e0a55005 	adc	r5, r5, r5
    9030:	e2533001 	subs	r3, r3, #1
    9034:	1afffff8 	bne	901c <__udivdi3+0xc4>
    9038:	e0948000 	adds	r8, r4, r0
    903c:	e0a59001 	adc	r9, r5, r1
    9040:	e1a03234 	lsr	r3, r4, r2
    9044:	e2621020 	rsb	r1, r2, #32
    9048:	e2420020 	sub	r0, r2, #32
    904c:	e1833115 	orr	r3, r3, r5, lsl r1
    9050:	e1a0c235 	lsr	ip, r5, r2
    9054:	e1833035 	orr	r3, r3, r5, lsr r0
    9058:	e1a0721c 	lsl	r7, ip, r2
    905c:	e1877013 	orr	r7, r7, r3, lsl r0
    9060:	e1a06213 	lsl	r6, r3, r2
    9064:	e1877133 	orr	r7, r7, r3, lsr r1
    9068:	e0580006 	subs	r0, r8, r6
    906c:	e0c91007 	sbc	r1, r9, r7
    9070:	e8bd47f0 	pop	{r4, r5, r6, r7, r8, r9, sl, lr}
    9074:	e12fff1e 	bx	lr

00009078 <__clzdi2>:
    9078:	e92d4010 	push	{r4, lr}
    907c:	e3510000 	cmp	r1, #0
    9080:	1a000002 	bne	9090 <__clzdi2+0x18>
    9084:	eb000005 	bl	90a0 <__clzsi2>
    9088:	e2800020 	add	r0, r0, #32
    908c:	ea000001 	b	9098 <__clzdi2+0x20>
    9090:	e1a00001 	mov	r0, r1
    9094:	eb000001 	bl	90a0 <__clzsi2>
    9098:	e8bd4010 	pop	{r4, lr}
    909c:	e12fff1e 	bx	lr

000090a0 <__clzsi2>:
    90a0:	e3a0101c 	mov	r1, #28
    90a4:	e3500801 	cmp	r0, #65536	; 0x10000
    90a8:	21a00820 	lsrcs	r0, r0, #16
    90ac:	22411010 	subcs	r1, r1, #16
    90b0:	e3500c01 	cmp	r0, #256	; 0x100
    90b4:	21a00420 	lsrcs	r0, r0, #8
    90b8:	22411008 	subcs	r1, r1, #8
    90bc:	e3500010 	cmp	r0, #16
    90c0:	21a00220 	lsrcs	r0, r0, #4
    90c4:	22411004 	subcs	r1, r1, #4
    90c8:	e28f2008 	add	r2, pc, #8
    90cc:	e7d20000 	ldrb	r0, [r2, r0]
    90d0:	e0800001 	add	r0, r0, r1
    90d4:	e12fff1e 	bx	lr
    90d8:	02020304 	andeq	r0, r2, #4, 6	; 0x10000000
    90dc:	01010101 	tsteq	r1, r1, lsl #2
	...
