
kernel_clapdetector/kernel.elf:     file format elf32-littlearm


Disassembly of section .text:

00008000 <__start>:
    8000:	e10f0000 	mrs	r0, CPSR
    8004:	e321f0d2 	msr	CPSR_c, #210	; 0xd2
    8008:	e59fd034 	ldr	sp, [pc, #52]	; 8044 <hang+0x8>
    800c:	e121f000 	msr	CPSR_c, r0
    8010:	e59fd030 	ldr	sp, [pc, #48]	; 8048 <hang+0xc>
    8014:	e59f0030 	ldr	r0, [pc, #48]	; 804c <hang+0x10>
    8018:	e59f1030 	ldr	r1, [pc, #48]	; 8050 <hang+0x14>
    801c:	e3a02000 	mov	r2, #0
    8020:	e3a03000 	mov	r3, #0
    8024:	e3a04000 	mov	r4, #0
    8028:	e3a05000 	mov	r5, #0

0000802c <bss_loop>:
    802c:	e8a0003c 	stmia	r0!, {r2, r3, r4, r5}
    8030:	e1500001 	cmp	r0, r1
    8034:	3afffffc 	bcc	802c <bss_loop>
    8038:	eb0000cd 	bl	8374 <kernel_main>

0000803c <hang>:
    803c:	e320f003 	wfi
    8040:	eafffffd 	b	803c <hang>
    8044:	0012d000 	andseq	sp, r2, r0
    8048:	0011c000 	andseq	ip, r1, r0
    804c:	0000c000 	andeq	ip, r0, r0
    8050:	0000c000 	andeq	ip, r0, r0

00008054 <gpio_config>:
    8054:	e52db004 	push	{fp}		; (str fp, [sp, #-4]!)
    8058:	e28db000 	add	fp, sp, #0
    805c:	e24dd01c 	sub	sp, sp, #28
    8060:	e1a03000 	mov	r3, r0
    8064:	e1a02001 	mov	r2, r1
    8068:	e54b3015 	strb	r3, [fp, #-21]	; 0xffffffeb
    806c:	e1a03002 	mov	r3, r2
    8070:	e54b3016 	strb	r3, [fp, #-22]	; 0xffffffea
    8074:	e55b3015 	ldrb	r3, [fp, #-21]	; 0xffffffeb
    8078:	e3530035 	cmp	r3, #53	; 0x35
    807c:	8a000002 	bhi	808c <gpio_config+0x38>
    8080:	e55b3016 	ldrb	r3, [fp, #-22]	; 0xffffffea
    8084:	e3530007 	cmp	r3, #7
    8088:	9a000000 	bls	8090 <gpio_config+0x3c>
    808c:	ea000035 	b	8168 <gpio_config+0x114>
    8090:	e55b2015 	ldrb	r2, [fp, #-21]	; 0xffffffeb
    8094:	e30c3ccd 	movw	r3, #52429	; 0xcccd
    8098:	e34c3ccc 	movt	r3, #52428	; 0xcccc
    809c:	e0832392 	umull	r2, r3, r2, r3
    80a0:	e1a031a3 	lsr	r3, r3, #3
    80a4:	e6ef3073 	uxtb	r3, r3
    80a8:	e50b3008 	str	r3, [fp, #-8]
    80ac:	e30b3000 	movw	r3, #45056	; 0xb000
    80b0:	e3403000 	movt	r3, #0
    80b4:	e5932000 	ldr	r2, [r3]
    80b8:	e51b3008 	ldr	r3, [fp, #-8]
    80bc:	e1a03103 	lsl	r3, r3, #2
    80c0:	e0823003 	add	r3, r2, r3
    80c4:	e5933000 	ldr	r3, [r3]
    80c8:	e50b300c 	str	r3, [fp, #-12]
    80cc:	e55b1015 	ldrb	r1, [fp, #-21]	; 0xffffffeb
    80d0:	e30c3ccd 	movw	r3, #52429	; 0xcccd
    80d4:	e34c3ccc 	movt	r3, #52428	; 0xcccc
    80d8:	e0832391 	umull	r2, r3, r1, r3
    80dc:	e1a021a3 	lsr	r2, r3, #3
    80e0:	e1a03002 	mov	r3, r2
    80e4:	e1a03103 	lsl	r3, r3, #2
    80e8:	e0833002 	add	r3, r3, r2
    80ec:	e1a03083 	lsl	r3, r3, #1
    80f0:	e0633001 	rsb	r3, r3, r1
    80f4:	e6ef3073 	uxtb	r3, r3
    80f8:	e1a02003 	mov	r2, r3
    80fc:	e1a03002 	mov	r3, r2
    8100:	e1a03083 	lsl	r3, r3, #1
    8104:	e0833002 	add	r3, r3, r2
    8108:	e50b3010 	str	r3, [fp, #-16]
    810c:	e51b3010 	ldr	r3, [fp, #-16]
    8110:	e3a02007 	mov	r2, #7
    8114:	e1a03312 	lsl	r3, r2, r3
    8118:	e1e03003 	mvn	r3, r3
    811c:	e1a02003 	mov	r2, r3
    8120:	e51b300c 	ldr	r3, [fp, #-12]
    8124:	e0033002 	and	r3, r3, r2
    8128:	e50b300c 	str	r3, [fp, #-12]
    812c:	e55b2016 	ldrb	r2, [fp, #-22]	; 0xffffffea
    8130:	e51b3010 	ldr	r3, [fp, #-16]
    8134:	e1a03312 	lsl	r3, r2, r3
    8138:	e1a02003 	mov	r2, r3
    813c:	e51b300c 	ldr	r3, [fp, #-12]
    8140:	e1833002 	orr	r3, r3, r2
    8144:	e50b300c 	str	r3, [fp, #-12]
    8148:	e30b3000 	movw	r3, #45056	; 0xb000
    814c:	e3403000 	movt	r3, #0
    8150:	e5932000 	ldr	r2, [r3]
    8154:	e51b3008 	ldr	r3, [fp, #-8]
    8158:	e1a03103 	lsl	r3, r3, #2
    815c:	e0823003 	add	r3, r2, r3
    8160:	e51b200c 	ldr	r2, [fp, #-12]
    8164:	e5832000 	str	r2, [r3]
    8168:	e24bd000 	sub	sp, fp, #0
    816c:	e49db004 	pop	{fp}		; (ldr fp, [sp], #4)
    8170:	e12fff1e 	bx	lr

00008174 <gpio_set>:
    8174:	e52db004 	push	{fp}		; (str fp, [sp, #-4]!)
    8178:	e28db000 	add	fp, sp, #0
    817c:	e24dd00c 	sub	sp, sp, #12
    8180:	e1a03000 	mov	r3, r0
    8184:	e54b3005 	strb	r3, [fp, #-5]
    8188:	e55b3005 	ldrb	r3, [fp, #-5]
    818c:	e3530035 	cmp	r3, #53	; 0x35
    8190:	9a000000 	bls	8198 <gpio_set+0x24>
    8194:	ea000014 	b	81ec <gpio_set+0x78>
    8198:	e55b3005 	ldrb	r3, [fp, #-5]
    819c:	e353001f 	cmp	r3, #31
    81a0:	9a000009 	bls	81cc <gpio_set+0x58>
    81a4:	e30b3000 	movw	r3, #45056	; 0xb000
    81a8:	e3403000 	movt	r3, #0
    81ac:	e5933000 	ldr	r3, [r3]
    81b0:	e2833020 	add	r3, r3, #32
    81b4:	e55b2005 	ldrb	r2, [fp, #-5]
    81b8:	e2422020 	sub	r2, r2, #32
    81bc:	e3a01001 	mov	r1, #1
    81c0:	e1a02211 	lsl	r2, r1, r2
    81c4:	e5832000 	str	r2, [r3]
    81c8:	ea000007 	b	81ec <gpio_set+0x78>
    81cc:	e30b3000 	movw	r3, #45056	; 0xb000
    81d0:	e3403000 	movt	r3, #0
    81d4:	e5933000 	ldr	r3, [r3]
    81d8:	e283301c 	add	r3, r3, #28
    81dc:	e55b2005 	ldrb	r2, [fp, #-5]
    81e0:	e3a01001 	mov	r1, #1
    81e4:	e1a02211 	lsl	r2, r1, r2
    81e8:	e5832000 	str	r2, [r3]
    81ec:	e24bd000 	sub	sp, fp, #0
    81f0:	e49db004 	pop	{fp}		; (ldr fp, [sp], #4)
    81f4:	e12fff1e 	bx	lr

000081f8 <gpio_clr>:
    81f8:	e52db004 	push	{fp}		; (str fp, [sp, #-4]!)
    81fc:	e28db000 	add	fp, sp, #0
    8200:	e24dd00c 	sub	sp, sp, #12
    8204:	e1a03000 	mov	r3, r0
    8208:	e54b3005 	strb	r3, [fp, #-5]
    820c:	e55b3005 	ldrb	r3, [fp, #-5]
    8210:	e3530035 	cmp	r3, #53	; 0x35
    8214:	9a000000 	bls	821c <gpio_clr+0x24>
    8218:	ea000014 	b	8270 <gpio_clr+0x78>
    821c:	e55b3005 	ldrb	r3, [fp, #-5]
    8220:	e353001f 	cmp	r3, #31
    8224:	9a000009 	bls	8250 <gpio_clr+0x58>
    8228:	e30b3000 	movw	r3, #45056	; 0xb000
    822c:	e3403000 	movt	r3, #0
    8230:	e5933000 	ldr	r3, [r3]
    8234:	e283302c 	add	r3, r3, #44	; 0x2c
    8238:	e55b2005 	ldrb	r2, [fp, #-5]
    823c:	e2422020 	sub	r2, r2, #32
    8240:	e3a01001 	mov	r1, #1
    8244:	e1a02211 	lsl	r2, r1, r2
    8248:	e5832000 	str	r2, [r3]
    824c:	ea000007 	b	8270 <gpio_clr+0x78>
    8250:	e30b3000 	movw	r3, #45056	; 0xb000
    8254:	e3403000 	movt	r3, #0
    8258:	e5933000 	ldr	r3, [r3]
    825c:	e2833028 	add	r3, r3, #40	; 0x28
    8260:	e55b2005 	ldrb	r2, [fp, #-5]
    8264:	e3a01001 	mov	r1, #1
    8268:	e1a02211 	lsl	r2, r1, r2
    826c:	e5832000 	str	r2, [r3]
    8270:	e24bd000 	sub	sp, fp, #0
    8274:	e49db004 	pop	{fp}		; (ldr fp, [sp], #4)
    8278:	e12fff1e 	bx	lr

0000827c <gpio_set_pull>:
    827c:	e92d4800 	push	{fp, lr}
    8280:	e28db004 	add	fp, sp, #4
    8284:	e24dd008 	sub	sp, sp, #8
    8288:	e1a03000 	mov	r3, r0
    828c:	e1a02001 	mov	r2, r1
    8290:	e54b3005 	strb	r3, [fp, #-5]
    8294:	e1a03002 	mov	r3, r2
    8298:	e54b3006 	strb	r3, [fp, #-6]
    829c:	e55b3005 	ldrb	r3, [fp, #-5]
    82a0:	e3530035 	cmp	r3, #53	; 0x35
    82a4:	8a000002 	bhi	82b4 <gpio_set_pull+0x38>
    82a8:	e55b3006 	ldrb	r3, [fp, #-6]
    82ac:	e3530002 	cmp	r3, #2
    82b0:	9a000000 	bls	82b8 <gpio_set_pull+0x3c>
    82b4:	ea00002c 	b	836c <gpio_set_pull+0xf0>
    82b8:	e30b3000 	movw	r3, #45056	; 0xb000
    82bc:	e3403000 	movt	r3, #0
    82c0:	e5933000 	ldr	r3, [r3]
    82c4:	e2833094 	add	r3, r3, #148	; 0x94
    82c8:	e55b2006 	ldrb	r2, [fp, #-6]
    82cc:	e5832000 	str	r2, [r3]
    82d0:	e3a00096 	mov	r0, #150	; 0x96
    82d4:	eb00028e 	bl	8d14 <delay_cycles>
    82d8:	e55b3005 	ldrb	r3, [fp, #-5]
    82dc:	e353001f 	cmp	r3, #31
    82e0:	9a000011 	bls	832c <gpio_set_pull+0xb0>
    82e4:	e30b3000 	movw	r3, #45056	; 0xb000
    82e8:	e3403000 	movt	r3, #0
    82ec:	e5933000 	ldr	r3, [r3]
    82f0:	e283309c 	add	r3, r3, #156	; 0x9c
    82f4:	e55b2005 	ldrb	r2, [fp, #-5]
    82f8:	e2422020 	sub	r2, r2, #32
    82fc:	e3a01001 	mov	r1, #1
    8300:	e1a02211 	lsl	r2, r1, r2
    8304:	e5832000 	str	r2, [r3]
    8308:	e3a00096 	mov	r0, #150	; 0x96
    830c:	eb000280 	bl	8d14 <delay_cycles>
    8310:	e30b3000 	movw	r3, #45056	; 0xb000
    8314:	e3403000 	movt	r3, #0
    8318:	e5933000 	ldr	r3, [r3]
    831c:	e283309c 	add	r3, r3, #156	; 0x9c
    8320:	e3a02000 	mov	r2, #0
    8324:	e5832000 	str	r2, [r3]
    8328:	ea00000f 	b	836c <gpio_set_pull+0xf0>
    832c:	e30b3000 	movw	r3, #45056	; 0xb000
    8330:	e3403000 	movt	r3, #0
    8334:	e5933000 	ldr	r3, [r3]
    8338:	e2833098 	add	r3, r3, #152	; 0x98
    833c:	e55b2005 	ldrb	r2, [fp, #-5]
    8340:	e3a01001 	mov	r1, #1
    8344:	e1a02211 	lsl	r2, r1, r2
    8348:	e5832000 	str	r2, [r3]
    834c:	e3a00096 	mov	r0, #150	; 0x96
    8350:	eb00026f 	bl	8d14 <delay_cycles>
    8354:	e30b3000 	movw	r3, #45056	; 0xb000
    8358:	e3403000 	movt	r3, #0
    835c:	e5933000 	ldr	r3, [r3]
    8360:	e2833098 	add	r3, r3, #152	; 0x98
    8364:	e3a02000 	mov	r2, #0
    8368:	e5832000 	str	r2, [r3]
    836c:	e24bd004 	sub	sp, fp, #4
    8370:	e8bd8800 	pop	{fp, pc}

00008374 <kernel_main>:
    8374:	e92d4070 	push	{r4, r5, r6, lr}
    8378:	eb0000b8 	bl	8660 <uart_init>
    837c:	e30005dc 	movw	r0, #1500	; 0x5dc
    8380:	eb0000f4 	bl	8758 <i2c_master_init>
    8384:	eb000204 	bl	8b9c <adc_init>
    8388:	e30a5014 	movw	r5, #40980	; 0xa014
    838c:	e3405000 	movt	r5, #0
    8390:	e3a06003 	mov	r6, #3
    8394:	e30a401c 	movw	r4, #40988	; 0xa01c
    8398:	e3404000 	movt	r4, #0
    839c:	eb0000da 	bl	870c <uart_get_byte>
    83a0:	e3500030 	cmp	r0, #48	; 0x30
    83a4:	1afffffc 	bne	839c <kernel_main+0x28>
    83a8:	e1a00005 	mov	r0, r5
    83ac:	eb00003d 	bl	84a8 <printk>
    83b0:	e1a00006 	mov	r0, r6
    83b4:	eb000234 	bl	8c8c <adc_read>
    83b8:	e1a01000 	mov	r1, r0
    83bc:	e1a00004 	mov	r0, r4
    83c0:	eb000038 	bl	84a8 <printk>
    83c4:	eafffff4 	b	839c <kernel_main+0x28>

000083c8 <printnumk>:
    83c8:	e92d47f0 	push	{r4, r5, r6, r7, r8, r9, sl, lr}
    83cc:	e24dd008 	sub	sp, sp, #8
    83d0:	e1a06002 	mov	r6, r2
    83d4:	e1a07003 	mov	r7, r3
    83d8:	e3500008 	cmp	r0, #8
    83dc:	0a000004 	beq	83f4 <printnumk+0x2c>
    83e0:	e30a8024 	movw	r8, #40996	; 0xa024
    83e4:	e3408000 	movt	r8, #0
    83e8:	e3500010 	cmp	r0, #16
    83ec:	13a08000 	movne	r8, #0
    83f0:	ea000001 	b	83fc <printnumk+0x34>
    83f4:	e30a8020 	movw	r8, #40992	; 0xa020
    83f8:	e3408000 	movt	r8, #0
    83fc:	e28d4007 	add	r4, sp, #7
    8400:	e1a05000 	mov	r5, r0
    8404:	e3a09000 	mov	r9, #0
    8408:	e30aa000 	movw	sl, #40960	; 0xa000
    840c:	e340a000 	movt	sl, #0
    8410:	e1a00006 	mov	r0, r6
    8414:	e1a01007 	mov	r1, r7
    8418:	e1a02005 	mov	r2, r5
    841c:	e1a03009 	mov	r3, r9
    8420:	eb00024c 	bl	8d58 <__aeabi_uldivmod>
    8424:	e7da3002 	ldrb	r3, [sl, r2]
    8428:	e4443001 	strb	r3, [r4], #-1
    842c:	e1a00006 	mov	r0, r6
    8430:	e1a01007 	mov	r1, r7
    8434:	e1a02005 	mov	r2, r5
    8438:	e1a03009 	mov	r3, r9
    843c:	eb000245 	bl	8d58 <__aeabi_uldivmod>
    8440:	e1a06000 	mov	r6, r0
    8444:	e1a07001 	mov	r7, r1
    8448:	e1963007 	orrs	r3, r6, r7
    844c:	1affffef 	bne	8410 <printnumk+0x48>
    8450:	e3580000 	cmp	r8, #0
    8454:	0a000002 	beq	8464 <printnumk+0x9c>
    8458:	e5d80000 	ldrb	r0, [r8]
    845c:	e3500000 	cmp	r0, #0
    8460:	1a000004 	bne	8478 <printnumk+0xb0>
    8464:	e2844001 	add	r4, r4, #1
    8468:	e28d3008 	add	r3, sp, #8
    846c:	e1540003 	cmp	r4, r3
    8470:	1a000005 	bne	848c <printnumk+0xc4>
    8474:	ea000009 	b	84a0 <printnumk+0xd8>
    8478:	eb00009a 	bl	86e8 <uart_put_byte>
    847c:	e5f80001 	ldrb	r0, [r8, #1]!
    8480:	e3500000 	cmp	r0, #0
    8484:	1afffffb 	bne	8478 <printnumk+0xb0>
    8488:	eafffff5 	b	8464 <printnumk+0x9c>
    848c:	e4d40001 	ldrb	r0, [r4], #1
    8490:	eb000094 	bl	86e8 <uart_put_byte>
    8494:	e28d3008 	add	r3, sp, #8
    8498:	e1540003 	cmp	r4, r3
    849c:	1afffffa 	bne	848c <printnumk+0xc4>
    84a0:	e28dd008 	add	sp, sp, #8
    84a4:	e8bd87f0 	pop	{r4, r5, r6, r7, r8, r9, sl, pc}

000084a8 <printk>:
    84a8:	e92d000f 	push	{r0, r1, r2, r3}
    84ac:	e92d41f0 	push	{r4, r5, r6, r7, r8, lr}
    84b0:	e24dd008 	sub	sp, sp, #8
    84b4:	e59d4020 	ldr	r4, [sp, #32]
    84b8:	e28d3024 	add	r3, sp, #36	; 0x24
    84bc:	e58d3004 	str	r3, [sp, #4]
    84c0:	e3a06000 	mov	r6, #0
    84c4:	e3a08008 	mov	r8, #8
    84c8:	e3a07010 	mov	r7, #16
    84cc:	ea00005c 	b	8644 <printk+0x19c>
    84d0:	e3500025 	cmp	r0, #37	; 0x25
    84d4:	0a000002 	beq	84e4 <printk+0x3c>
    84d8:	e2844001 	add	r4, r4, #1
    84dc:	eb000081 	bl	86e8 <uart_put_byte>
    84e0:	ea000057 	b	8644 <printk+0x19c>
    84e4:	e5d43001 	ldrb	r3, [r4, #1]
    84e8:	e353006f 	cmp	r3, #111	; 0x6f
    84ec:	0a00002c 	beq	85a4 <printk+0xfc>
    84f0:	8a000006 	bhi	8510 <printk+0x68>
    84f4:	e3530063 	cmp	r3, #99	; 0x63
    84f8:	0a000045 	beq	8614 <printk+0x16c>
    84fc:	e3530064 	cmp	r3, #100	; 0x64
    8500:	0a00000d 	beq	853c <printk+0x94>
    8504:	e3530025 	cmp	r3, #37	; 0x25
    8508:	1a00004a 	bne	8638 <printk+0x190>
    850c:	ea000046 	b	862c <printk+0x184>
    8510:	e3530073 	cmp	r3, #115	; 0x73
    8514:	0a000032 	beq	85e4 <printk+0x13c>
    8518:	8a000002 	bhi	8528 <printk+0x80>
    851c:	e3530070 	cmp	r3, #112	; 0x70
    8520:	0a000027 	beq	85c4 <printk+0x11c>
    8524:	ea000043 	b	8638 <printk+0x190>
    8528:	e3530075 	cmp	r3, #117	; 0x75
    852c:	0a000014 	beq	8584 <printk+0xdc>
    8530:	e3530078 	cmp	r3, #120	; 0x78
    8534:	0a000022 	beq	85c4 <printk+0x11c>
    8538:	ea00003e 	b	8638 <printk+0x190>
    853c:	e59d3004 	ldr	r3, [sp, #4]
    8540:	e2832004 	add	r2, r3, #4
    8544:	e58d2004 	str	r2, [sp, #4]
    8548:	e5935000 	ldr	r5, [r3]
    854c:	e3550000 	cmp	r5, #0
    8550:	aa000006 	bge	8570 <printk+0xc8>
    8554:	e3a0002d 	mov	r0, #45	; 0x2d
    8558:	eb000062 	bl	86e8 <uart_put_byte>
    855c:	e2652000 	rsb	r2, r5, #0
    8560:	e3a0000a 	mov	r0, #10
    8564:	e1a03fc2 	asr	r3, r2, #31
    8568:	ebffff96 	bl	83c8 <printnumk>
    856c:	ea000033 	b	8640 <printk+0x198>
    8570:	e3a0000a 	mov	r0, #10
    8574:	e1a02005 	mov	r2, r5
    8578:	e1a03fc5 	asr	r3, r5, #31
    857c:	ebffff91 	bl	83c8 <printnumk>
    8580:	ea00002e 	b	8640 <printk+0x198>
    8584:	e59d3004 	ldr	r3, [sp, #4]
    8588:	e2832004 	add	r2, r3, #4
    858c:	e58d2004 	str	r2, [sp, #4]
    8590:	e3a0000a 	mov	r0, #10
    8594:	e5932000 	ldr	r2, [r3]
    8598:	e1a03006 	mov	r3, r6
    859c:	ebffff89 	bl	83c8 <printnumk>
    85a0:	ea000026 	b	8640 <printk+0x198>
    85a4:	e59d3004 	ldr	r3, [sp, #4]
    85a8:	e2832004 	add	r2, r3, #4
    85ac:	e58d2004 	str	r2, [sp, #4]
    85b0:	e1a00008 	mov	r0, r8
    85b4:	e5932000 	ldr	r2, [r3]
    85b8:	e1a03006 	mov	r3, r6
    85bc:	ebffff81 	bl	83c8 <printnumk>
    85c0:	ea00001e 	b	8640 <printk+0x198>
    85c4:	e59d3004 	ldr	r3, [sp, #4]
    85c8:	e2832004 	add	r2, r3, #4
    85cc:	e58d2004 	str	r2, [sp, #4]
    85d0:	e1a00007 	mov	r0, r7
    85d4:	e5932000 	ldr	r2, [r3]
    85d8:	e1a03006 	mov	r3, r6
    85dc:	ebffff79 	bl	83c8 <printnumk>
    85e0:	ea000016 	b	8640 <printk+0x198>
    85e4:	e59d3004 	ldr	r3, [sp, #4]
    85e8:	e2832004 	add	r2, r3, #4
    85ec:	e58d2004 	str	r2, [sp, #4]
    85f0:	e5935000 	ldr	r5, [r3]
    85f4:	e5d50000 	ldrb	r0, [r5]
    85f8:	e3500000 	cmp	r0, #0
    85fc:	0a00000f 	beq	8640 <printk+0x198>
    8600:	eb000038 	bl	86e8 <uart_put_byte>
    8604:	e5f50001 	ldrb	r0, [r5, #1]!
    8608:	e3500000 	cmp	r0, #0
    860c:	1afffffb 	bne	8600 <printk+0x158>
    8610:	ea00000a 	b	8640 <printk+0x198>
    8614:	e59d3004 	ldr	r3, [sp, #4]
    8618:	e2832004 	add	r2, r3, #4
    861c:	e58d2004 	str	r2, [sp, #4]
    8620:	e5d30000 	ldrb	r0, [r3]
    8624:	eb00002f 	bl	86e8 <uart_put_byte>
    8628:	ea000004 	b	8640 <printk+0x198>
    862c:	e3a00025 	mov	r0, #37	; 0x25
    8630:	eb00002c 	bl	86e8 <uart_put_byte>
    8634:	ea000001 	b	8640 <printk+0x198>
    8638:	e3e00000 	mvn	r0, #0
    863c:	ea000003 	b	8650 <printk+0x1a8>
    8640:	e2844002 	add	r4, r4, #2
    8644:	e5d40000 	ldrb	r0, [r4]
    8648:	e3500000 	cmp	r0, #0
    864c:	1affff9f 	bne	84d0 <printk+0x28>
    8650:	e28dd008 	add	sp, sp, #8
    8654:	e8bd41f0 	pop	{r4, r5, r6, r7, r8, lr}
    8658:	e28dd010 	add	sp, sp, #16
    865c:	e12fff1e 	bx	lr

00008660 <uart_init>:
    8660:	e92d4008 	push	{r3, lr}
    8664:	e3a0000f 	mov	r0, #15
    8668:	e3a01000 	mov	r1, #0
    866c:	ebffff02 	bl	827c <gpio_set_pull>
    8670:	e3a0000e 	mov	r0, #14
    8674:	e3a01000 	mov	r1, #0
    8678:	ebfffeff 	bl	827c <gpio_set_pull>
    867c:	e3a0000f 	mov	r0, #15
    8680:	e3a01002 	mov	r1, #2
    8684:	ebfffe72 	bl	8054 <gpio_config>
    8688:	e3a0000e 	mov	r0, #14
    868c:	e3a01002 	mov	r1, #2
    8690:	ebfffe6f 	bl	8054 <gpio_config>
    8694:	e3a03a05 	mov	r3, #20480	; 0x5000
    8698:	e3433f21 	movt	r3, #16161	; 0x3f21
    869c:	e5932004 	ldr	r2, [r3, #4]
    86a0:	e3822001 	orr	r2, r2, #1
    86a4:	e5832004 	str	r2, [r3, #4]
    86a8:	e3a02003 	mov	r2, #3
    86ac:	e583204c 	str	r2, [r3, #76]	; 0x4c
    86b0:	e3a02000 	mov	r2, #0
    86b4:	e5832044 	str	r2, [r3, #68]	; 0x44
    86b8:	e300210e 	movw	r2, #270	; 0x10e
    86bc:	e5832068 	str	r2, [r3, #104]	; 0x68
    86c0:	e8bd8008 	pop	{r3, pc}

000086c4 <uart_close>:
    86c4:	e3a03a05 	mov	r3, #20480	; 0x5000
    86c8:	e3433f21 	movt	r3, #16161	; 0x3f21
    86cc:	e5932048 	ldr	r2, [r3, #72]	; 0x48
    86d0:	e3822006 	orr	r2, r2, #6
    86d4:	e5832048 	str	r2, [r3, #72]	; 0x48
    86d8:	e5932004 	ldr	r2, [r3, #4]
    86dc:	e3c22001 	bic	r2, r2, #1
    86e0:	e5832004 	str	r2, [r3, #4]
    86e4:	e12fff1e 	bx	lr

000086e8 <uart_put_byte>:
    86e8:	e3a02a05 	mov	r2, #20480	; 0x5000
    86ec:	e3432f21 	movt	r2, #16161	; 0x3f21
    86f0:	e5923054 	ldr	r3, [r2, #84]	; 0x54
    86f4:	e3130020 	tst	r3, #32
    86f8:	0afffffc 	beq	86f0 <uart_put_byte+0x8>
    86fc:	e3a03a05 	mov	r3, #20480	; 0x5000
    8700:	e3433f21 	movt	r3, #16161	; 0x3f21
    8704:	e5c30040 	strb	r0, [r3, #64]	; 0x40
    8708:	e12fff1e 	bx	lr

0000870c <uart_get_byte>:
    870c:	e92d4038 	push	{r3, r4, r5, lr}
    8710:	e3a02000 	mov	r2, #0
    8714:	e3a04a05 	mov	r4, #20480	; 0x5000
    8718:	e3434f21 	movt	r4, #16161	; 0x3f21
    871c:	e30a5028 	movw	r5, #41000	; 0xa028
    8720:	e3405000 	movt	r5, #0
    8724:	ea000004 	b	873c <uart_get_byte+0x30>
    8728:	e3520000 	cmp	r2, #0
    872c:	1a000002 	bne	873c <uart_get_byte+0x30>
    8730:	e1a00005 	mov	r0, r5
    8734:	ebffff5b 	bl	84a8 <printk>
    8738:	e3a02001 	mov	r2, #1
    873c:	e5943054 	ldr	r3, [r4, #84]	; 0x54
    8740:	e3130001 	tst	r3, #1
    8744:	0afffff7 	beq	8728 <uart_get_byte+0x1c>
    8748:	e3a03a05 	mov	r3, #20480	; 0x5000
    874c:	e3433f21 	movt	r3, #16161	; 0x3f21
    8750:	e5d30040 	ldrb	r0, [r3, #64]	; 0x40
    8754:	e8bd8038 	pop	{r3, r4, r5, pc}

00008758 <i2c_master_init>:
    8758:	e92d4008 	push	{r3, lr}
    875c:	e3a00002 	mov	r0, #2
    8760:	e3a01004 	mov	r1, #4
    8764:	ebfffe3a 	bl	8054 <gpio_config>
    8768:	e3a00003 	mov	r0, #3
    876c:	e3a01004 	mov	r1, #4
    8770:	ebfffe37 	bl	8054 <gpio_config>
    8774:	e8bd8008 	pop	{r3, pc}

00008778 <i2c_master_write>:
    8778:	e92d41f0 	push	{r4, r5, r6, r7, r8, lr}
    877c:	e1a05000 	mov	r5, r0
    8780:	e1a04001 	mov	r4, r1
    8784:	e1a06002 	mov	r6, r2
    8788:	e30a0038 	movw	r0, #41016	; 0xa038
    878c:	e3400000 	movt	r0, #0
    8790:	ebffff44 	bl	84a8 <printk>
    8794:	e3a00901 	mov	r0, #16384	; 0x4000
    8798:	e3430f80 	movt	r0, #16256	; 0x3f80
    879c:	e3a01010 	mov	r1, #16
    87a0:	e1a02001 	mov	r2, r1
    87a4:	eb000150 	bl	8cec <peri_set_bits>
    87a8:	e3040004 	movw	r0, #16388	; 0x4004
    87ac:	e3430f80 	movt	r0, #16256	; 0x3f80
    87b0:	e3001302 	movw	r1, #770	; 0x302
    87b4:	eb00014a 	bl	8ce4 <peri_write>
    87b8:	e304000c 	movw	r0, #16396	; 0x400c
    87bc:	e3430f80 	movt	r0, #16256	; 0x3f80
    87c0:	e1a01006 	mov	r1, r6
    87c4:	eb000146 	bl	8ce4 <peri_write>
    87c8:	e3040008 	movw	r0, #16392	; 0x4008
    87cc:	e3430f80 	movt	r0, #16256	; 0x3f80
    87d0:	e1a01004 	mov	r1, r4
    87d4:	eb000142 	bl	8ce4 <peri_write>
    87d8:	e3540000 	cmp	r4, #0
    87dc:	0a000013 	beq	8830 <i2c_master_write+0xb8>
    87e0:	e1a08004 	mov	r8, r4
    87e4:	e2455001 	sub	r5, r5, #1
    87e8:	e3a04000 	mov	r4, #0
    87ec:	e3047010 	movw	r7, #16400	; 0x4010
    87f0:	e3437f80 	movt	r7, #16256	; 0x3f80
    87f4:	e30a6054 	movw	r6, #41044	; 0xa054
    87f8:	e3406000 	movt	r6, #0
    87fc:	e1a00007 	mov	r0, r7
    8800:	e5f51001 	ldrb	r1, [r5, #1]!
    8804:	eb000136 	bl	8ce4 <peri_write>
    8808:	e1a00006 	mov	r0, r6
    880c:	e5d51000 	ldrb	r1, [r5]
    8810:	ebffff24 	bl	84a8 <printk>
    8814:	e2844001 	add	r4, r4, #1
    8818:	e0583004 	subs	r3, r8, r4
    881c:	13a03001 	movne	r3, #1
    8820:	e354000f 	cmp	r4, #15
    8824:	83a03000 	movhi	r3, #0
    8828:	e3530000 	cmp	r3, #0
    882c:	1afffff2 	bne	87fc <i2c_master_write+0x84>
    8830:	e3a00901 	mov	r0, #16384	; 0x4000
    8834:	e3430f80 	movt	r0, #16256	; 0x3f80
    8838:	e3081080 	movw	r1, #32896	; 0x8080
    883c:	eb000128 	bl	8ce4 <peri_write>
    8840:	e3040004 	movw	r0, #16388	; 0x4004
    8844:	e3430f80 	movt	r0, #16256	; 0x3f80
    8848:	eb000123 	bl	8cdc <peri_read>
    884c:	e3100c01 	tst	r0, #256	; 0x100
    8850:	13a05001 	movne	r5, #1
    8854:	1a000007 	bne	8878 <i2c_master_write+0x100>
    8858:	e3040004 	movw	r0, #16388	; 0x4004
    885c:	e3430f80 	movt	r0, #16256	; 0x3f80
    8860:	eb00011d 	bl	8cdc <peri_read>
    8864:	e2000c02 	and	r0, r0, #512	; 0x200
    8868:	e3500000 	cmp	r0, #0
    886c:	03a05000 	moveq	r5, #0
    8870:	13a05002 	movne	r5, #2
    8874:	eaffffff 	b	8878 <i2c_master_write+0x100>
    8878:	e3044004 	movw	r4, #16388	; 0x4004
    887c:	e3434f80 	movt	r4, #16256	; 0x3f80
    8880:	e1a00004 	mov	r0, r4
    8884:	eb000114 	bl	8cdc <peri_read>
    8888:	e3100002 	tst	r0, #2
    888c:	0afffffb 	beq	8880 <i2c_master_write+0x108>
    8890:	e3a00901 	mov	r0, #16384	; 0x4000
    8894:	e3430f80 	movt	r0, #16256	; 0x3f80
    8898:	e3a01002 	mov	r1, #2
    889c:	e1a02001 	mov	r2, r1
    88a0:	eb000111 	bl	8cec <peri_set_bits>
    88a4:	e1a00005 	mov	r0, r5
    88a8:	e8bd81f0 	pop	{r4, r5, r6, r7, r8, pc}

000088ac <i2c_master_read>:
    88ac:	e92d47f0 	push	{r4, r5, r6, r7, r8, r9, sl, lr}
    88b0:	e1a0a000 	mov	sl, r0
    88b4:	e1a06001 	mov	r6, r1
    88b8:	e1a07002 	mov	r7, r2
    88bc:	e1a04001 	mov	r4, r1
    88c0:	e3a05901 	mov	r5, #16384	; 0x4000
    88c4:	e3435f80 	movt	r5, #16256	; 0x3f80
    88c8:	e1a00005 	mov	r0, r5
    88cc:	e3a01020 	mov	r1, #32
    88d0:	e1a02001 	mov	r2, r1
    88d4:	eb000104 	bl	8cec <peri_set_bits>
    88d8:	e3040004 	movw	r0, #16388	; 0x4004
    88dc:	e3430f80 	movt	r0, #16256	; 0x3f80
    88e0:	e3001302 	movw	r1, #770	; 0x302
    88e4:	eb0000fe 	bl	8ce4 <peri_write>
    88e8:	e3040008 	movw	r0, #16392	; 0x4008
    88ec:	e3430f80 	movt	r0, #16256	; 0x3f80
    88f0:	e1a01006 	mov	r1, r6
    88f4:	eb0000fa 	bl	8ce4 <peri_write>
    88f8:	e304000c 	movw	r0, #16396	; 0x400c
    88fc:	e3430f80 	movt	r0, #16256	; 0x3f80
    8900:	e1a01007 	mov	r1, r7
    8904:	eb0000f6 	bl	8ce4 <peri_write>
    8908:	e1a00005 	mov	r0, r5
    890c:	e3081081 	movw	r1, #32897	; 0x8081
    8910:	eb0000f3 	bl	8ce4 <peri_write>
    8914:	e3a05000 	mov	r5, #0
    8918:	e3048004 	movw	r8, #16388	; 0x4004
    891c:	e3438f80 	movt	r8, #16256	; 0x3f80
    8920:	e3047010 	movw	r7, #16400	; 0x4010
    8924:	e3437f80 	movt	r7, #16256	; 0x3f80
    8928:	e30a9070 	movw	r9, #41072	; 0xa070
    892c:	e3409000 	movt	r9, #0
    8930:	ea00000e 	b	8970 <i2c_master_read+0xc4>
    8934:	e1a00007 	mov	r0, r7
    8938:	eb0000e7 	bl	8cdc <peri_read>
    893c:	e1a02000 	mov	r2, r0
    8940:	e4c60001 	strb	r0, [r6], #1
    8944:	e1a00009 	mov	r0, r9
    8948:	e1a01007 	mov	r1, r7
    894c:	e6ef2072 	uxtb	r2, r2
    8950:	ebfffed4 	bl	84a8 <printk>
    8954:	e2855001 	add	r5, r5, #1
    8958:	e2544001 	subs	r4, r4, #1
    895c:	0a000003 	beq	8970 <i2c_master_read+0xc4>
    8960:	e1a00008 	mov	r0, r8
    8964:	eb0000dc 	bl	8cdc <peri_read>
    8968:	e3100020 	tst	r0, #32
    896c:	1afffff0 	bne	8934 <i2c_master_read+0x88>
    8970:	e1a00008 	mov	r0, r8
    8974:	eb0000d8 	bl	8cdc <peri_read>
    8978:	e3100002 	tst	r0, #2
    897c:	1a000003 	bne	8990 <i2c_master_read+0xe4>
    8980:	e3540000 	cmp	r4, #0
    8984:	0afffff9 	beq	8970 <i2c_master_read+0xc4>
    8988:	e08a6005 	add	r6, sl, r5
    898c:	eafffff3 	b	8960 <i2c_master_read+0xb4>
    8990:	e1a06004 	mov	r6, r4
    8994:	e3040004 	movw	r0, #16388	; 0x4004
    8998:	e3430f80 	movt	r0, #16256	; 0x3f80
    899c:	eb0000ce 	bl	8cdc <peri_read>
    89a0:	e3100020 	tst	r0, #32
    89a4:	0a000002 	beq	89b4 <i2c_master_read+0x108>
    89a8:	e30a0090 	movw	r0, #41104	; 0xa090
    89ac:	e3400000 	movt	r0, #0
    89b0:	ebfffebc 	bl	84a8 <printk>
    89b4:	e3560000 	cmp	r6, #0
    89b8:	0a000012 	beq	8a08 <i2c_master_read+0x15c>
    89bc:	e08a5005 	add	r5, sl, r5
    89c0:	e3047004 	movw	r7, #16388	; 0x4004
    89c4:	e3437f80 	movt	r7, #16256	; 0x3f80
    89c8:	e30a60b0 	movw	r6, #41136	; 0xa0b0
    89cc:	e3406000 	movt	r6, #0
    89d0:	e3048010 	movw	r8, #16400	; 0x4010
    89d4:	e3438f80 	movt	r8, #16256	; 0x3f80
    89d8:	ea000006 	b	89f8 <i2c_master_read+0x14c>
    89dc:	e1a00006 	mov	r0, r6
    89e0:	ebfffeb0 	bl	84a8 <printk>
    89e4:	e1a00008 	mov	r0, r8
    89e8:	eb0000bb 	bl	8cdc <peri_read>
    89ec:	e4c50001 	strb	r0, [r5], #1
    89f0:	e2544001 	subs	r4, r4, #1
    89f4:	0a000003 	beq	8a08 <i2c_master_read+0x15c>
    89f8:	e1a00007 	mov	r0, r7
    89fc:	eb0000b6 	bl	8cdc <peri_read>
    8a00:	e3100020 	tst	r0, #32
    8a04:	1afffff4 	bne	89dc <i2c_master_read+0x130>
    8a08:	e3040004 	movw	r0, #16388	; 0x4004
    8a0c:	e3430f80 	movt	r0, #16256	; 0x3f80
    8a10:	eb0000b1 	bl	8cdc <peri_read>
    8a14:	e3100c01 	tst	r0, #256	; 0x100
    8a18:	13a05001 	movne	r5, #1
    8a1c:	1a000007 	bne	8a40 <i2c_master_read+0x194>
    8a20:	e3040004 	movw	r0, #16388	; 0x4004
    8a24:	e3430f80 	movt	r0, #16256	; 0x3f80
    8a28:	eb0000ab 	bl	8cdc <peri_read>
    8a2c:	e2000c02 	and	r0, r0, #512	; 0x200
    8a30:	e3500000 	cmp	r0, #0
    8a34:	03a05000 	moveq	r5, #0
    8a38:	13a05002 	movne	r5, #2
    8a3c:	eaffffff 	b	8a40 <i2c_master_read+0x194>
    8a40:	e3044004 	movw	r4, #16388	; 0x4004
    8a44:	e3434f80 	movt	r4, #16256	; 0x3f80
    8a48:	e1a00004 	mov	r0, r4
    8a4c:	eb0000a2 	bl	8cdc <peri_read>
    8a50:	e3100002 	tst	r0, #2
    8a54:	0afffffb 	beq	8a48 <i2c_master_read+0x19c>
    8a58:	e3a00901 	mov	r0, #16384	; 0x4000
    8a5c:	e3430f80 	movt	r0, #16256	; 0x3f80
    8a60:	e3a01002 	mov	r1, #2
    8a64:	e1a02001 	mov	r2, r1
    8a68:	eb00009f 	bl	8cec <peri_set_bits>
    8a6c:	e1a00005 	mov	r0, r5
    8a70:	e8bd87f0 	pop	{r4, r5, r6, r7, r8, r9, sl, pc}

00008a74 <adc_write_config>:
    8a74:	e52de004 	push	{lr}		; (str lr, [sp, #-4]!)
    8a78:	e24dd00c 	sub	sp, sp, #12
    8a7c:	e1a01000 	mov	r1, r0
    8a80:	e3a03001 	mov	r3, #1
    8a84:	e5cd3004 	strb	r3, [sp, #4]
    8a88:	e1a03420 	lsr	r3, r0, #8
    8a8c:	e5cd3005 	strb	r3, [sp, #5]
    8a90:	e5cd0006 	strb	r0, [sp, #6]
    8a94:	e30a00d8 	movw	r0, #41176	; 0xa0d8
    8a98:	e3400000 	movt	r0, #0
    8a9c:	ebfffe81 	bl	84a8 <printk>
    8aa0:	e28d0004 	add	r0, sp, #4
    8aa4:	e3a01003 	mov	r1, #3
    8aa8:	e3a02049 	mov	r2, #73	; 0x49
    8aac:	ebffff31 	bl	8778 <i2c_master_write>
    8ab0:	e2501000 	subs	r1, r0, #0
    8ab4:	0a000003 	beq	8ac8 <adc_write_config+0x54>
    8ab8:	e30a00f0 	movw	r0, #41200	; 0xa0f0
    8abc:	e3400000 	movt	r0, #0
    8ac0:	ebfffe78 	bl	84a8 <printk>
    8ac4:	ea000002 	b	8ad4 <adc_write_config+0x60>
    8ac8:	e30a0104 	movw	r0, #41220	; 0xa104
    8acc:	e3400000 	movt	r0, #0
    8ad0:	ebfffe74 	bl	84a8 <printk>
    8ad4:	e3a01001 	mov	r1, #1
    8ad8:	e28d0008 	add	r0, sp, #8
    8adc:	e5601004 	strb	r1, [r0, #-4]!
    8ae0:	e3a02049 	mov	r2, #73	; 0x49
    8ae4:	ebffff23 	bl	8778 <i2c_master_write>
    8ae8:	e1a0000d 	mov	r0, sp
    8aec:	e3a01002 	mov	r1, #2
    8af0:	e3a02049 	mov	r2, #73	; 0x49
    8af4:	ebffff6c 	bl	88ac <i2c_master_read>
    8af8:	e2501000 	subs	r1, r0, #0
    8afc:	0a000002 	beq	8b0c <adc_write_config+0x98>
    8b00:	e30a0114 	movw	r0, #41236	; 0xa114
    8b04:	e3400000 	movt	r0, #0
    8b08:	ebfffe66 	bl	84a8 <printk>
    8b0c:	e5dd1000 	ldrb	r1, [sp]
    8b10:	e5dd3001 	ldrb	r3, [sp, #1]
    8b14:	e30a0138 	movw	r0, #41272	; 0xa138
    8b18:	e3400000 	movt	r0, #0
    8b1c:	e0831401 	add	r1, r3, r1, lsl #8
    8b20:	ebfffe60 	bl	84a8 <printk>
    8b24:	e28dd00c 	add	sp, sp, #12
    8b28:	e49df004 	pop	{pc}		; (ldr pc, [sp], #4)

00008b2c <adc_read_conversion>:
    8b2c:	e52de004 	push	{lr}		; (str lr, [sp, #-4]!)
    8b30:	e24dd00c 	sub	sp, sp, #12
    8b34:	e28d0008 	add	r0, sp, #8
    8b38:	e3a03000 	mov	r3, #0
    8b3c:	e5603004 	strb	r3, [r0, #-4]!
    8b40:	e3a01001 	mov	r1, #1
    8b44:	e3a02049 	mov	r2, #73	; 0x49
    8b48:	ebffff0a 	bl	8778 <i2c_master_write>
    8b4c:	e2501000 	subs	r1, r0, #0
    8b50:	0a000002 	beq	8b60 <adc_read_conversion+0x34>
    8b54:	e30a0150 	movw	r0, #41296	; 0xa150
    8b58:	e3400000 	movt	r0, #0
    8b5c:	ebfffe51 	bl	84a8 <printk>
    8b60:	e1a0000d 	mov	r0, sp
    8b64:	e3a01002 	mov	r1, #2
    8b68:	e3a02049 	mov	r2, #73	; 0x49
    8b6c:	ebffff4e 	bl	88ac <i2c_master_read>
    8b70:	e2501000 	subs	r1, r0, #0
    8b74:	0a000002 	beq	8b84 <adc_read_conversion+0x58>
    8b78:	e30a0190 	movw	r0, #41360	; 0xa190
    8b7c:	e3400000 	movt	r0, #0
    8b80:	ebfffe48 	bl	84a8 <printk>
    8b84:	e5dd0000 	ldrb	r0, [sp]
    8b88:	e5dd3001 	ldrb	r3, [sp, #1]
    8b8c:	e0830400 	add	r0, r3, r0, lsl #8
    8b90:	e6ff0070 	uxth	r0, r0
    8b94:	e28dd00c 	add	sp, sp, #12
    8b98:	e49df004 	pop	{pc}		; (ldr pc, [sp], #4)

00008b9c <adc_init>:
    8b9c:	e92d4030 	push	{r4, r5, lr}
    8ba0:	e24dd00c 	sub	sp, sp, #12
    8ba4:	e3a01001 	mov	r1, #1
    8ba8:	e28d0008 	add	r0, sp, #8
    8bac:	e5601004 	strb	r1, [r0, #-4]!
    8bb0:	e3a02049 	mov	r2, #73	; 0x49
    8bb4:	ebfffeef 	bl	8778 <i2c_master_write>
    8bb8:	e1a0000d 	mov	r0, sp
    8bbc:	e3a01002 	mov	r1, #2
    8bc0:	e3a02049 	mov	r2, #73	; 0x49
    8bc4:	ebffff38 	bl	88ac <i2c_master_read>
    8bc8:	e2501000 	subs	r1, r0, #0
    8bcc:	0a000002 	beq	8bdc <adc_init+0x40>
    8bd0:	e30a0114 	movw	r0, #41236	; 0xa114
    8bd4:	e3400000 	movt	r0, #0
    8bd8:	ebfffe32 	bl	84a8 <printk>
    8bdc:	e5dd1000 	ldrb	r1, [sp]
    8be0:	e5dd3001 	ldrb	r3, [sp, #1]
    8be4:	e0831401 	add	r1, r3, r1, lsl #8
    8be8:	e30a0138 	movw	r0, #41272	; 0xa138
    8bec:	e3400000 	movt	r0, #0
    8bf0:	e6ff1071 	uxth	r1, r1
    8bf4:	ebfffe2b 	bl	84a8 <printk>
    8bf8:	e28d4008 	add	r4, sp, #8
    8bfc:	e3a03003 	mov	r3, #3
    8c00:	e5643004 	strb	r3, [r4, #-4]!
    8c04:	e1a00004 	mov	r0, r4
    8c08:	e3a01001 	mov	r1, #1
    8c0c:	e3a02049 	mov	r2, #73	; 0x49
    8c10:	ebfffed8 	bl	8778 <i2c_master_write>
    8c14:	e1a0000d 	mov	r0, sp
    8c18:	e3a01002 	mov	r1, #2
    8c1c:	e3a02049 	mov	r2, #73	; 0x49
    8c20:	ebffff21 	bl	88ac <i2c_master_read>
    8c24:	e5dd1000 	ldrb	r1, [sp]
    8c28:	e5dd3001 	ldrb	r3, [sp, #1]
    8c2c:	e0831401 	add	r1, r3, r1, lsl #8
    8c30:	e30a01bc 	movw	r0, #41404	; 0xa1bc
    8c34:	e3400000 	movt	r0, #0
    8c38:	e6ff1071 	uxth	r1, r1
    8c3c:	ebfffe19 	bl	84a8 <printk>
    8c40:	e3a05002 	mov	r5, #2
    8c44:	e5cd5004 	strb	r5, [sp, #4]
    8c48:	e1a00004 	mov	r0, r4
    8c4c:	e3a01001 	mov	r1, #1
    8c50:	e3a02049 	mov	r2, #73	; 0x49
    8c54:	ebfffec7 	bl	8778 <i2c_master_write>
    8c58:	e1a0000d 	mov	r0, sp
    8c5c:	e1a01005 	mov	r1, r5
    8c60:	e3a02049 	mov	r2, #73	; 0x49
    8c64:	ebffff10 	bl	88ac <i2c_master_read>
    8c68:	e5dd1000 	ldrb	r1, [sp]
    8c6c:	e5dd3001 	ldrb	r3, [sp, #1]
    8c70:	e0831401 	add	r1, r3, r1, lsl #8
    8c74:	e30a01cc 	movw	r0, #41420	; 0xa1cc
    8c78:	e3400000 	movt	r0, #0
    8c7c:	e6ff1071 	uxth	r1, r1
    8c80:	ebfffe08 	bl	84a8 <printk>
    8c84:	e28dd00c 	add	sp, sp, #12
    8c88:	e8bd8030 	pop	{r4, r5, pc}

00008c8c <adc_read>:
    8c8c:	e92d4008 	push	{r3, lr}
    8c90:	e3500003 	cmp	r0, #3
    8c94:	979ff100 	ldrls	pc, [pc, r0, lsl #2]
    8c98:	ea00000d 	b	8cd4 <adc_read+0x48>
    8c9c:	00008cc4 	andeq	r8, r0, r4, asr #25
    8ca0:	00008cac 	andeq	r8, r0, ip, lsr #25
    8ca4:	00008cb4 			; <UNDEFINED> instruction: 0x00008cb4
    8ca8:	00008cbc 			; <UNDEFINED> instruction: 0x00008cbc
    8cac:	e3050083 	movw	r0, #20611	; 0x5083
    8cb0:	ea000004 	b	8cc8 <adc_read+0x3c>
    8cb4:	e3060083 	movw	r0, #24707	; 0x6083
    8cb8:	ea000002 	b	8cc8 <adc_read+0x3c>
    8cbc:	e3070083 	movw	r0, #28803	; 0x7083
    8cc0:	ea000000 	b	8cc8 <adc_read+0x3c>
    8cc4:	e3040083 	movw	r0, #16515	; 0x4083
    8cc8:	ebffff69 	bl	8a74 <adc_write_config>
    8ccc:	ebffff96 	bl	8b2c <adc_read_conversion>
    8cd0:	e8bd8008 	pop	{r3, pc}
    8cd4:	e3a00000 	mov	r0, #0
    8cd8:	e8bd8008 	pop	{r3, pc}

00008cdc <peri_read>:
    8cdc:	e5900000 	ldr	r0, [r0]
    8ce0:	e12fff1e 	bx	lr

00008ce4 <peri_write>:
    8ce4:	e5801000 	str	r1, [r0]
    8ce8:	e12fff1e 	bx	lr

00008cec <peri_set_bits>:
    8cec:	e5903000 	ldr	r3, [r0]
    8cf0:	e1c33002 	bic	r3, r3, r2
    8cf4:	e0011002 	and	r1, r1, r2
    8cf8:	e1832001 	orr	r2, r3, r1
    8cfc:	e5802000 	str	r2, [r0]
    8d00:	e12fff1e 	bx	lr

00008d04 <set_bits>:
    8d04:	e1c00002 	bic	r0, r0, r2
    8d08:	e0011002 	and	r1, r1, r2
    8d0c:	e1800001 	orr	r0, r0, r1
    8d10:	e12fff1e 	bx	lr

00008d14 <delay_cycles>:
    8d14:	e2500001 	subs	r0, r0, #1
    8d18:	1afffffd 	bne	8d14 <delay_cycles>
    8d1c:	e1a0f00e 	mov	pc, lr

00008d20 <read_cpsr>:
    8d20:	e10f0000 	mrs	r0, CPSR
    8d24:	e1a0f00e 	mov	pc, lr

00008d28 <write_cpsr>:
    8d28:	e129f000 	msr	CPSR_fc, r0
    8d2c:	e1a0f00e 	mov	pc, lr

00008d30 <disable_interrupts>:
    8d30:	e10f0000 	mrs	r0, CPSR
    8d34:	e3a01d07 	mov	r1, #448	; 0x1c0
    8d38:	e1800001 	orr	r0, r0, r1
    8d3c:	e129f000 	msr	CPSR_fc, r0
    8d40:	e1a0f00e 	mov	pc, lr

00008d44 <enable_interrupts>:
    8d44:	e10f0000 	mrs	r0, CPSR
    8d48:	e3a01d07 	mov	r1, #448	; 0x1c0
    8d4c:	e1c00001 	bic	r0, r0, r1
    8d50:	e129f000 	msr	CPSR_fc, r0
    8d54:	e1a0f00e 	mov	pc, lr

00008d58 <__aeabi_uldivmod>:
    8d58:	e3530000 	cmp	r3, #0
    8d5c:	03520000 	cmpeq	r2, #0
    8d60:	1a000004 	bne	8d78 <__aeabi_uldivmod+0x20>
    8d64:	e3510000 	cmp	r1, #0
    8d68:	03500000 	cmpeq	r0, #0
    8d6c:	13e01000 	mvnne	r1, #0
    8d70:	13e00000 	mvnne	r0, #0
    8d74:	ea000027 	b	8e18 <__aeabi_idiv0>
    8d78:	e24dd008 	sub	sp, sp, #8
    8d7c:	e92d6000 	push	{sp, lr}
    8d80:	eb000014 	bl	8dd8 <__gnu_uldivmod_helper>
    8d84:	e59de004 	ldr	lr, [sp, #4]
    8d88:	e28dd008 	add	sp, sp, #8
    8d8c:	e8bd000c 	pop	{r2, r3}
    8d90:	e12fff1e 	bx	lr

00008d94 <__gnu_ldivmod_helper>:
    8d94:	e92d47f0 	push	{r4, r5, r6, r7, r8, r9, sl, lr}
    8d98:	e59d6020 	ldr	r6, [sp, #32]
    8d9c:	e1a07002 	mov	r7, r2
    8da0:	e1a0a003 	mov	sl, r3
    8da4:	e1a04000 	mov	r4, r0
    8da8:	e1a05001 	mov	r5, r1
    8dac:	eb00001a 	bl	8e1c <__divdi3>
    8db0:	e1a03000 	mov	r3, r0
    8db4:	e0020197 	mul	r2, r7, r1
    8db8:	e0898097 	umull	r8, r9, r7, r0
    8dbc:	e023239a 	mla	r3, sl, r3, r2
    8dc0:	e0544008 	subs	r4, r4, r8
    8dc4:	e0839009 	add	r9, r3, r9
    8dc8:	e0c55009 	sbc	r5, r5, r9
    8dcc:	e8860030 	stm	r6, {r4, r5}
    8dd0:	e8bd47f0 	pop	{r4, r5, r6, r7, r8, r9, sl, lr}
    8dd4:	e12fff1e 	bx	lr

00008dd8 <__gnu_uldivmod_helper>:
    8dd8:	e92d41f0 	push	{r4, r5, r6, r7, r8, lr}
    8ddc:	e59d5018 	ldr	r5, [sp, #24]
    8de0:	e1a04002 	mov	r4, r2
    8de4:	e1a08003 	mov	r8, r3
    8de8:	e1a06000 	mov	r6, r0
    8dec:	e1a07001 	mov	r7, r1
    8df0:	eb000067 	bl	8f94 <__udivdi3>
    8df4:	e0080890 	mul	r8, r0, r8
    8df8:	e0832490 	umull	r2, r3, r0, r4
    8dfc:	e0248491 	mla	r4, r1, r4, r8
    8e00:	e0566002 	subs	r6, r6, r2
    8e04:	e0843003 	add	r3, r4, r3
    8e08:	e0c77003 	sbc	r7, r7, r3
    8e0c:	e88500c0 	stm	r5, {r6, r7}
    8e10:	e8bd41f0 	pop	{r4, r5, r6, r7, r8, lr}
    8e14:	e12fff1e 	bx	lr

00008e18 <__aeabi_idiv0>:
    8e18:	e12fff1e 	bx	lr

00008e1c <__divdi3>:
    8e1c:	e3510000 	cmp	r1, #0
    8e20:	e92d4ff8 	push	{r3, r4, r5, r6, r7, r8, r9, sl, fp, lr}
    8e24:	a1a04000 	movge	r4, r0
    8e28:	a1a05001 	movge	r5, r1
    8e2c:	a3a0a000 	movge	sl, #0
    8e30:	ba000053 	blt	8f84 <__divdi3+0x168>
    8e34:	e3530000 	cmp	r3, #0
    8e38:	a1a08002 	movge	r8, r2
    8e3c:	a1a09003 	movge	r9, r3
    8e40:	ba00004b 	blt	8f74 <__divdi3+0x158>
    8e44:	e1550009 	cmp	r5, r9
    8e48:	01540008 	cmpeq	r4, r8
    8e4c:	33a02000 	movcc	r2, #0
    8e50:	33a03000 	movcc	r3, #0
    8e54:	3a00003b 	bcc	8f48 <__divdi3+0x12c>
    8e58:	e1a01009 	mov	r1, r9
    8e5c:	e1a00008 	mov	r0, r8
    8e60:	eb000093 	bl	90b4 <__clzdi2>
    8e64:	e1a01005 	mov	r1, r5
    8e68:	e1a0b000 	mov	fp, r0
    8e6c:	e1a00004 	mov	r0, r4
    8e70:	eb00008f 	bl	90b4 <__clzdi2>
    8e74:	e060000b 	rsb	r0, r0, fp
    8e78:	e240e020 	sub	lr, r0, #32
    8e7c:	e1a07019 	lsl	r7, r9, r0
    8e80:	e1877e18 	orr	r7, r7, r8, lsl lr
    8e84:	e260c020 	rsb	ip, r0, #32
    8e88:	e1877c38 	orr	r7, r7, r8, lsr ip
    8e8c:	e1550007 	cmp	r5, r7
    8e90:	e1a06018 	lsl	r6, r8, r0
    8e94:	01540006 	cmpeq	r4, r6
    8e98:	e1a01000 	mov	r1, r0
    8e9c:	33a02000 	movcc	r2, #0
    8ea0:	33a03000 	movcc	r3, #0
    8ea4:	3a000005 	bcc	8ec0 <__divdi3+0xa4>
    8ea8:	e3a08001 	mov	r8, #1
    8eac:	e0544006 	subs	r4, r4, r6
    8eb0:	e1a03e18 	lsl	r3, r8, lr
    8eb4:	e1833c38 	orr	r3, r3, r8, lsr ip
    8eb8:	e0c55007 	sbc	r5, r5, r7
    8ebc:	e1a02018 	lsl	r2, r8, r0
    8ec0:	e3500000 	cmp	r0, #0
    8ec4:	0a00001f 	beq	8f48 <__divdi3+0x12c>
    8ec8:	e1b070a7 	lsrs	r7, r7, #1
    8ecc:	e1a06066 	rrx	r6, r6
    8ed0:	ea000007 	b	8ef4 <__divdi3+0xd8>
    8ed4:	e0544006 	subs	r4, r4, r6
    8ed8:	e0c55007 	sbc	r5, r5, r7
    8edc:	e0944004 	adds	r4, r4, r4
    8ee0:	e0a55005 	adc	r5, r5, r5
    8ee4:	e2944001 	adds	r4, r4, #1
    8ee8:	e2a55000 	adc	r5, r5, #0
    8eec:	e2500001 	subs	r0, r0, #1
    8ef0:	0a000006 	beq	8f10 <__divdi3+0xf4>
    8ef4:	e1570005 	cmp	r7, r5
    8ef8:	01560004 	cmpeq	r6, r4
    8efc:	9afffff4 	bls	8ed4 <__divdi3+0xb8>
    8f00:	e0944004 	adds	r4, r4, r4
    8f04:	e0a55005 	adc	r5, r5, r5
    8f08:	e2500001 	subs	r0, r0, #1
    8f0c:	1afffff8 	bne	8ef4 <__divdi3+0xd8>
    8f10:	e261c020 	rsb	ip, r1, #32
    8f14:	e1a00134 	lsr	r0, r4, r1
    8f18:	e0922004 	adds	r2, r2, r4
    8f1c:	e241e020 	sub	lr, r1, #32
    8f20:	e1800c15 	orr	r0, r0, r5, lsl ip
    8f24:	e1a04135 	lsr	r4, r5, r1
    8f28:	e1800e35 	orr	r0, r0, r5, lsr lr
    8f2c:	e1a07114 	lsl	r7, r4, r1
    8f30:	e1877e10 	orr	r7, r7, r0, lsl lr
    8f34:	e1a06110 	lsl	r6, r0, r1
    8f38:	e0a33005 	adc	r3, r3, r5
    8f3c:	e1877c30 	orr	r7, r7, r0, lsr ip
    8f40:	e0522006 	subs	r2, r2, r6
    8f44:	e0c33007 	sbc	r3, r3, r7
    8f48:	e29a0000 	adds	r0, sl, #0
    8f4c:	13a00001 	movne	r0, #1
    8f50:	e3a01000 	mov	r1, #0
    8f54:	e2704000 	rsbs	r4, r0, #0
    8f58:	e2e15000 	rsc	r5, r1, #0
    8f5c:	e0222004 	eor	r2, r2, r4
    8f60:	e0233005 	eor	r3, r3, r5
    8f64:	e0900002 	adds	r0, r0, r2
    8f68:	e0a11003 	adc	r1, r1, r3
    8f6c:	e8bd4ff8 	pop	{r3, r4, r5, r6, r7, r8, r9, sl, fp, lr}
    8f70:	e12fff1e 	bx	lr
    8f74:	e2728000 	rsbs	r8, r2, #0
    8f78:	e1e0a00a 	mvn	sl, sl
    8f7c:	e2e39000 	rsc	r9, r3, #0
    8f80:	eaffffaf 	b	8e44 <__divdi3+0x28>
    8f84:	e2704000 	rsbs	r4, r0, #0
    8f88:	e2e15000 	rsc	r5, r1, #0
    8f8c:	e3e0a000 	mvn	sl, #0
    8f90:	eaffffa7 	b	8e34 <__divdi3+0x18>

00008f94 <__udivdi3>:
    8f94:	e1510003 	cmp	r1, r3
    8f98:	01500002 	cmpeq	r0, r2
    8f9c:	e92d47f0 	push	{r4, r5, r6, r7, r8, r9, sl, lr}
    8fa0:	e1a04000 	mov	r4, r0
    8fa4:	e1a05001 	mov	r5, r1
    8fa8:	e1a08002 	mov	r8, r2
    8fac:	e1a09003 	mov	r9, r3
    8fb0:	33a00000 	movcc	r0, #0
    8fb4:	33a01000 	movcc	r1, #0
    8fb8:	3a00003b 	bcc	90ac <__udivdi3+0x118>
    8fbc:	e1a01003 	mov	r1, r3
    8fc0:	e1a00002 	mov	r0, r2
    8fc4:	eb00003a 	bl	90b4 <__clzdi2>
    8fc8:	e1a01005 	mov	r1, r5
    8fcc:	e1a0a000 	mov	sl, r0
    8fd0:	e1a00004 	mov	r0, r4
    8fd4:	eb000036 	bl	90b4 <__clzdi2>
    8fd8:	e060300a 	rsb	r3, r0, sl
    8fdc:	e243e020 	sub	lr, r3, #32
    8fe0:	e1a07319 	lsl	r7, r9, r3
    8fe4:	e1877e18 	orr	r7, r7, r8, lsl lr
    8fe8:	e263c020 	rsb	ip, r3, #32
    8fec:	e1877c38 	orr	r7, r7, r8, lsr ip
    8ff0:	e1550007 	cmp	r5, r7
    8ff4:	e1a06318 	lsl	r6, r8, r3
    8ff8:	01540006 	cmpeq	r4, r6
    8ffc:	e1a02003 	mov	r2, r3
    9000:	33a00000 	movcc	r0, #0
    9004:	33a01000 	movcc	r1, #0
    9008:	3a000005 	bcc	9024 <__udivdi3+0x90>
    900c:	e3a08001 	mov	r8, #1
    9010:	e0544006 	subs	r4, r4, r6
    9014:	e1a01e18 	lsl	r1, r8, lr
    9018:	e1811c38 	orr	r1, r1, r8, lsr ip
    901c:	e0c55007 	sbc	r5, r5, r7
    9020:	e1a00318 	lsl	r0, r8, r3
    9024:	e3530000 	cmp	r3, #0
    9028:	0a00001f 	beq	90ac <__udivdi3+0x118>
    902c:	e1b070a7 	lsrs	r7, r7, #1
    9030:	e1a06066 	rrx	r6, r6
    9034:	ea000007 	b	9058 <__udivdi3+0xc4>
    9038:	e0544006 	subs	r4, r4, r6
    903c:	e0c55007 	sbc	r5, r5, r7
    9040:	e0944004 	adds	r4, r4, r4
    9044:	e0a55005 	adc	r5, r5, r5
    9048:	e2944001 	adds	r4, r4, #1
    904c:	e2a55000 	adc	r5, r5, #0
    9050:	e2533001 	subs	r3, r3, #1
    9054:	0a000006 	beq	9074 <__udivdi3+0xe0>
    9058:	e1570005 	cmp	r7, r5
    905c:	01560004 	cmpeq	r6, r4
    9060:	9afffff4 	bls	9038 <__udivdi3+0xa4>
    9064:	e0944004 	adds	r4, r4, r4
    9068:	e0a55005 	adc	r5, r5, r5
    906c:	e2533001 	subs	r3, r3, #1
    9070:	1afffff8 	bne	9058 <__udivdi3+0xc4>
    9074:	e0948000 	adds	r8, r4, r0
    9078:	e0a59001 	adc	r9, r5, r1
    907c:	e1a03234 	lsr	r3, r4, r2
    9080:	e2621020 	rsb	r1, r2, #32
    9084:	e2420020 	sub	r0, r2, #32
    9088:	e1833115 	orr	r3, r3, r5, lsl r1
    908c:	e1a0c235 	lsr	ip, r5, r2
    9090:	e1833035 	orr	r3, r3, r5, lsr r0
    9094:	e1a0721c 	lsl	r7, ip, r2
    9098:	e1877013 	orr	r7, r7, r3, lsl r0
    909c:	e1a06213 	lsl	r6, r3, r2
    90a0:	e1877133 	orr	r7, r7, r3, lsr r1
    90a4:	e0580006 	subs	r0, r8, r6
    90a8:	e0c91007 	sbc	r1, r9, r7
    90ac:	e8bd47f0 	pop	{r4, r5, r6, r7, r8, r9, sl, lr}
    90b0:	e12fff1e 	bx	lr

000090b4 <__clzdi2>:
    90b4:	e92d4010 	push	{r4, lr}
    90b8:	e3510000 	cmp	r1, #0
    90bc:	1a000002 	bne	90cc <__clzdi2+0x18>
    90c0:	eb000005 	bl	90dc <__clzsi2>
    90c4:	e2800020 	add	r0, r0, #32
    90c8:	ea000001 	b	90d4 <__clzdi2+0x20>
    90cc:	e1a00001 	mov	r0, r1
    90d0:	eb000001 	bl	90dc <__clzsi2>
    90d4:	e8bd4010 	pop	{r4, lr}
    90d8:	e12fff1e 	bx	lr

000090dc <__clzsi2>:
    90dc:	e3a0101c 	mov	r1, #28
    90e0:	e3500801 	cmp	r0, #65536	; 0x10000
    90e4:	21a00820 	lsrcs	r0, r0, #16
    90e8:	22411010 	subcs	r1, r1, #16
    90ec:	e3500c01 	cmp	r0, #256	; 0x100
    90f0:	21a00420 	lsrcs	r0, r0, #8
    90f4:	22411008 	subcs	r1, r1, #8
    90f8:	e3500010 	cmp	r0, #16
    90fc:	21a00220 	lsrcs	r0, r0, #4
    9100:	22411004 	subcs	r1, r1, #4
    9104:	e28f2008 	add	r2, pc, #8
    9108:	e7d20000 	ldrb	r0, [r2, r0]
    910c:	e0800001 	add	r0, r0, r1
    9110:	e12fff1e 	bx	lr
    9114:	02020304 	andeq	r0, r2, #4, 6	; 0x10000000
    9118:	01010101 	tsteq	r1, r1, lsl #2
	...
